

Microchip MPLAB XC8 Assembler V2.10 build 88905656 
                                                                                               Thu Feb 27 11:29:28 2020

Microchip MPLAB XC8 C Compiler v2.10 (Free license) build 20190730164152 Og1 
     1                           	processor	16F887
     2                           	opt	pw 120
     3                           	opt	flic
     4                           	psect	strings,global,class=STRING,delta=2
     5                           	psect	cinit,global,class=CODE,merge=1,delta=2
     6                           	psect	bssBANK0,global,class=BANK0,space=1,delta=1
     7                           	psect	clrtext,global,class=CODE,delta=2
     8                           	psect	cstackCOMMON,global,class=COMMON,space=1,delta=1
     9                           	psect	cstackBANK0,global,class=BANK0,space=1,delta=1
    10                           	psect	maintext,global,class=CODE,split=1,delta=2
    11                           	psect	text1,local,class=CODE,merge=1,delta=2
    12                           	psect	text2,local,class=CODE,merge=1,delta=2
    13                           	psect	text3,local,class=CODE,merge=1,delta=2
    14                           	psect	text4,local,class=CODE,merge=1,delta=2,group=1
    15                           	psect	text5,local,class=CODE,merge=1,delta=2
    16                           	psect	text6,local,class=CODE,merge=1,delta=2
    17                           	psect	text7,local,class=CODE,merge=1,delta=2
    18                           	psect	text8,local,class=CODE,merge=1,delta=2
    19                           	psect	text9,local,class=CODE,merge=1,delta=2
    20                           	psect	text10,local,class=CODE,merge=1,delta=2
    21                           	psect	text11,local,class=CODE,merge=1,delta=2
    22                           	psect	text12,local,class=CODE,merge=1,delta=2
    23                           	psect	text13,local,class=CODE,merge=1,delta=2
    24                           	psect	text14,local,class=CODE,merge=1,delta=2
    25                           	psect	text15,local,class=CODE,merge=1,delta=2
    26                           	psect	text16,local,class=CODE,merge=1,delta=2
    27                           	psect	text17,local,class=CODE,merge=1,delta=2
    28                           	psect	text18,local,class=CODE,merge=1,delta=2
    29                           	psect	text19,local,class=CODE,merge=1,delta=2
    30                           	psect	text20,local,class=CODE,merge=1,delta=2
    31                           	psect	text21,local,class=CODE,merge=1,delta=2,group=1
    32                           	psect	text22,local,class=CODE,merge=1,delta=2,group=1
    33                           	dabs	1,0x7E,2
    34  0000                     
    35                           ; Version 2.10
    36                           ; Generated 31/07/2019 GMT
    37                           ; 
    38                           ; Copyright © 2019, Microchip Technology Inc. and its subsidiaries ("Microchip")
    39                           ; All rights reserved.
    40                           ; 
    41                           ; This software is developed by Microchip Technology Inc. and its subsidiaries ("Microch
      +                          ip").
    42                           ; 
    43                           ; Redistribution and use in source and binary forms, with or without modification, are
    44                           ; permitted provided that the following conditions are met:
    45                           ; 
    46                           ;     1. Redistributions of source code must retain the above copyright notice, this lis
      +                          t of
    47                           ;        conditions and the following disclaimer.
    48                           ; 
    49                           ;     2. Redistributions in binary form must reproduce the above copyright notice, this 
      +                          list
    50                           ;        of conditions and the following disclaimer in the documentation and/or other
    51                           ;        materials provided with the distribution.
    52                           ; 
    53                           ;     3. Microchip's name may not be used to endorse or promote products derived from th
      +                          is
    54                           ;        software without specific prior written permission.
    55                           ; 
    56                           ; THIS SOFTWARE IS PROVIDED BY MICROCHIP "AS IS" AND ANY EXPRESS OR IMPLIED WARRANTIES,
    57                           ; INCLUDING, BUT NOT LIMITED TO, THE IMPLIED WARRANTIES OF MERCHANTABILITY AND FITNESS F
      +                          OR
    58                           ; PURPOSE ARE DISCLAIMED.  IN NO EVENT SHALL MICROCHIP BE LIABLE FOR ANY DIRECT, INDIREC
      +                          T,
    59                           ; INCIDENTAL, SPECIAL, EXEMPLARY, OR CONSEQUENTIAL DAMAGES (INCLUDING BUT NOT LIMITED TO
    60                           ; PROCUREMENT OF SUBSTITUTE GOODS OR SERVICES; LOSS OF USE, DATA OR PROFITS; OR BUSINESS
    61                           ; INTERRUPTION) HOWSOEVER CAUSED AND ON ANY THEORY OF LIABILITY, WHETHER IN CONTRACT, ST
      +                          RICT
    62                           ; LIABILITY, OR TORT (INCLUDING NEGLIGENCE OR OTHERWISE) ARISING IN ANY WAY OUT OF THE U
      +                          SE OF
    63                           ; THIS SOFTWARE, EVEN IF ADVISED OF THE POSSIBILITY OF SUCH DAMAGE.
    64                           ; 
    65                           ; 
    66                           ; Code-generator required, PIC16F887 Definitions
    67                           ; 
    68                           ; SFR Addresses
    69  0000                     	;# 
    70  0001                     	;# 
    71  0002                     	;# 
    72  0003                     	;# 
    73  0004                     	;# 
    74  0005                     	;# 
    75  0006                     	;# 
    76  0007                     	;# 
    77  0008                     	;# 
    78  0009                     	;# 
    79  000A                     	;# 
    80  000B                     	;# 
    81  000C                     	;# 
    82  000D                     	;# 
    83  000E                     	;# 
    84  000E                     	;# 
    85  000F                     	;# 
    86  0010                     	;# 
    87  0011                     	;# 
    88  0012                     	;# 
    89  0013                     	;# 
    90  0014                     	;# 
    91  0015                     	;# 
    92  0015                     	;# 
    93  0016                     	;# 
    94  0017                     	;# 
    95  0018                     	;# 
    96  0019                     	;# 
    97  001A                     	;# 
    98  001B                     	;# 
    99  001B                     	;# 
   100  001C                     	;# 
   101  001D                     	;# 
   102  001E                     	;# 
   103  001F                     	;# 
   104  0081                     	;# 
   105  0085                     	;# 
   106  0086                     	;# 
   107  0087                     	;# 
   108  0088                     	;# 
   109  0089                     	;# 
   110  008C                     	;# 
   111  008D                     	;# 
   112  008E                     	;# 
   113  008F                     	;# 
   114  0090                     	;# 
   115  0091                     	;# 
   116  0092                     	;# 
   117  0093                     	;# 
   118  0093                     	;# 
   119  0093                     	;# 
   120  0094                     	;# 
   121  0095                     	;# 
   122  0096                     	;# 
   123  0097                     	;# 
   124  0098                     	;# 
   125  0099                     	;# 
   126  009A                     	;# 
   127  009B                     	;# 
   128  009C                     	;# 
   129  009D                     	;# 
   130  009E                     	;# 
   131  009F                     	;# 
   132  0105                     	;# 
   133  0107                     	;# 
   134  0108                     	;# 
   135  0109                     	;# 
   136  010C                     	;# 
   137  010C                     	;# 
   138  010D                     	;# 
   139  010E                     	;# 
   140  010F                     	;# 
   141  0185                     	;# 
   142  0187                     	;# 
   143  0188                     	;# 
   144  0189                     	;# 
   145  018C                     	;# 
   146  018D                     	;# 
   147  0000                     	;# 
   148  0001                     	;# 
   149  0002                     	;# 
   150  0003                     	;# 
   151  0004                     	;# 
   152  0005                     	;# 
   153  0006                     	;# 
   154  0007                     	;# 
   155  0008                     	;# 
   156  0009                     	;# 
   157  000A                     	;# 
   158  000B                     	;# 
   159  000C                     	;# 
   160  000D                     	;# 
   161  000E                     	;# 
   162  000E                     	;# 
   163  000F                     	;# 
   164  0010                     	;# 
   165  0011                     	;# 
   166  0012                     	;# 
   167  0013                     	;# 
   168  0014                     	;# 
   169  0015                     	;# 
   170  0015                     	;# 
   171  0016                     	;# 
   172  0017                     	;# 
   173  0018                     	;# 
   174  0019                     	;# 
   175  001A                     	;# 
   176  001B                     	;# 
   177  001B                     	;# 
   178  001C                     	;# 
   179  001D                     	;# 
   180  001E                     	;# 
   181  001F                     	;# 
   182  0081                     	;# 
   183  0085                     	;# 
   184  0086                     	;# 
   185  0087                     	;# 
   186  0088                     	;# 
   187  0089                     	;# 
   188  008C                     	;# 
   189  008D                     	;# 
   190  008E                     	;# 
   191  008F                     	;# 
   192  0090                     	;# 
   193  0091                     	;# 
   194  0092                     	;# 
   195  0093                     	;# 
   196  0093                     	;# 
   197  0093                     	;# 
   198  0094                     	;# 
   199  0095                     	;# 
   200  0096                     	;# 
   201  0097                     	;# 
   202  0098                     	;# 
   203  0099                     	;# 
   204  009A                     	;# 
   205  009B                     	;# 
   206  009C                     	;# 
   207  009D                     	;# 
   208  009E                     	;# 
   209  009F                     	;# 
   210  0105                     	;# 
   211  0107                     	;# 
   212  0108                     	;# 
   213  0109                     	;# 
   214  010C                     	;# 
   215  010C                     	;# 
   216  010D                     	;# 
   217  010E                     	;# 
   218  010F                     	;# 
   219  0185                     	;# 
   220  0187                     	;# 
   221  0188                     	;# 
   222  0189                     	;# 
   223  018C                     	;# 
   224  018D                     	;# 
   225  0000                     	;# 
   226  0001                     	;# 
   227  0002                     	;# 
   228  0003                     	;# 
   229  0004                     	;# 
   230  0005                     	;# 
   231  0006                     	;# 
   232  0007                     	;# 
   233  0008                     	;# 
   234  0009                     	;# 
   235  000A                     	;# 
   236  000B                     	;# 
   237  000C                     	;# 
   238  000D                     	;# 
   239  000E                     	;# 
   240  000E                     	;# 
   241  000F                     	;# 
   242  0010                     	;# 
   243  0011                     	;# 
   244  0012                     	;# 
   245  0013                     	;# 
   246  0014                     	;# 
   247  0015                     	;# 
   248  0015                     	;# 
   249  0016                     	;# 
   250  0017                     	;# 
   251  0018                     	;# 
   252  0019                     	;# 
   253  001A                     	;# 
   254  001B                     	;# 
   255  001B                     	;# 
   256  001C                     	;# 
   257  001D                     	;# 
   258  001E                     	;# 
   259  001F                     	;# 
   260  0081                     	;# 
   261  0085                     	;# 
   262  0086                     	;# 
   263  0087                     	;# 
   264  0088                     	;# 
   265  0089                     	;# 
   266  008C                     	;# 
   267  008D                     	;# 
   268  008E                     	;# 
   269  008F                     	;# 
   270  0090                     	;# 
   271  0091                     	;# 
   272  0092                     	;# 
   273  0093                     	;# 
   274  0093                     	;# 
   275  0093                     	;# 
   276  0094                     	;# 
   277  0095                     	;# 
   278  0096                     	;# 
   279  0097                     	;# 
   280  0098                     	;# 
   281  0099                     	;# 
   282  009A                     	;# 
   283  009B                     	;# 
   284  009C                     	;# 
   285  009D                     	;# 
   286  009E                     	;# 
   287  009F                     	;# 
   288  0105                     	;# 
   289  0107                     	;# 
   290  0108                     	;# 
   291  0109                     	;# 
   292  010C                     	;# 
   293  010C                     	;# 
   294  010D                     	;# 
   295  010E                     	;# 
   296  010F                     	;# 
   297  0185                     	;# 
   298  0187                     	;# 
   299  0188                     	;# 
   300  0189                     	;# 
   301  018C                     	;# 
   302  018D                     	;# 
   303  0000                     	;# 
   304  0001                     	;# 
   305  0002                     	;# 
   306  0003                     	;# 
   307  0004                     	;# 
   308  0005                     	;# 
   309  0006                     	;# 
   310  0007                     	;# 
   311  0008                     	;# 
   312  0009                     	;# 
   313  000A                     	;# 
   314  000B                     	;# 
   315  000C                     	;# 
   316  000D                     	;# 
   317  000E                     	;# 
   318  000E                     	;# 
   319  000F                     	;# 
   320  0010                     	;# 
   321  0011                     	;# 
   322  0012                     	;# 
   323  0013                     	;# 
   324  0014                     	;# 
   325  0015                     	;# 
   326  0015                     	;# 
   327  0016                     	;# 
   328  0017                     	;# 
   329  0018                     	;# 
   330  0019                     	;# 
   331  001A                     	;# 
   332  001B                     	;# 
   333  001B                     	;# 
   334  001C                     	;# 
   335  001D                     	;# 
   336  001E                     	;# 
   337  001F                     	;# 
   338  0081                     	;# 
   339  0085                     	;# 
   340  0086                     	;# 
   341  0087                     	;# 
   342  0088                     	;# 
   343  0089                     	;# 
   344  008C                     	;# 
   345  008D                     	;# 
   346  008E                     	;# 
   347  008F                     	;# 
   348  0090                     	;# 
   349  0091                     	;# 
   350  0092                     	;# 
   351  0093                     	;# 
   352  0093                     	;# 
   353  0093                     	;# 
   354  0094                     	;# 
   355  0095                     	;# 
   356  0096                     	;# 
   357  0097                     	;# 
   358  0098                     	;# 
   359  0099                     	;# 
   360  009A                     	;# 
   361  009B                     	;# 
   362  009C                     	;# 
   363  009D                     	;# 
   364  009E                     	;# 
   365  009F                     	;# 
   366  0105                     	;# 
   367  0107                     	;# 
   368  0108                     	;# 
   369  0109                     	;# 
   370  010C                     	;# 
   371  010C                     	;# 
   372  010D                     	;# 
   373  010E                     	;# 
   374  010F                     	;# 
   375  0185                     	;# 
   376  0187                     	;# 
   377  0188                     	;# 
   378  0189                     	;# 
   379  018C                     	;# 
   380  018D                     	;# 
   381  0013                     _SSPBUF	set	19
   382  0014                     _SSPCON	set	20
   383  0006                     _PORTB	set	6
   384  0008                     _PORTDbits	set	8
   385  0063                     _SSPIF	set	99
   386  005E                     _PEIE	set	94
   387  005F                     _GIE	set	95
   388  0091                     _SSPCON2bits	set	145
   389  0087                     _TRISCbits	set	135
   390  0094                     _SSPSTAT	set	148
   391  0093                     _SSPADD	set	147
   392  0091                     _SSPCON2	set	145
   393  0086                     _TRISB	set	134
   394  0088                     _TRISDbits	set	136
   395  0085                     _TRISA	set	133
   396  0463                     _SSPIE	set	1123
   397  043C                     _TRISC4	set	1084
   398  043B                     _TRISC3	set	1083
   399  0189                     _ANSELH	set	393
   400  0188                     _ANSEL	set	392
   401                           
   402                           	psect	strings
   403  0003                     __pstrings:	
   404  0003                     stringtab:	
   405  0003                     __stringtab:	
   406  0003                     stringcode:	
   407                           ;	String table - string pointers are 1 byte each
   408                           
   409  0003                     stringdir:	
   410  0003  3000               	movlw	high stringdir
   411  0004  008A               	movwf	10
   412  0005  0804               	movf	4,w
   413  0006  0A84               	incf	4,f
   414  0007  0782               	addwf	2,f
   415  0008                     __stringbase:	
   416  0008  3400               	retlw	0
   417  0009                     __end_of__stringtab:	
   418  0009                     STR_5:	
   419  0009  3441               	retlw	65	;'A'
   420  000A  3444               	retlw	68	;'D'
   421  000B  3443               	retlw	67	;'C'
   422  000C  3420               	retlw	32	;' '
   423  000D  3420               	retlw	32	;' '
   424  000E  3443               	retlw	67	;'C'
   425  000F  344F               	retlw	79	;'O'
   426  0010  3455               	retlw	85	;'U'
   427  0011  344E               	retlw	78	;'N'
   428  0012  3454               	retlw	84	;'T'
   429  0013  3445               	retlw	69	;'E'
   430  0014  3452               	retlw	82	;'R'
   431  0015  3420               	retlw	32	;' '
   432  0016  3446               	retlw	70	;'F'
   433  0017  344F               	retlw	79	;'O'
   434  0018  3454               	retlw	84	;'T'
   435  0019  3400               	retlw	0
   436  001A                     STR_6:	
   437  001A  3420               	retlw	32	;' '
   438  001B  342E               	retlw	46	;'.'
   439  001C  3420               	retlw	32	;' '
   440  001D  3420               	retlw	32	;' '
   441  001E  3456               	retlw	86	;'V'
   442  001F  3420               	retlw	32	;' '
   443  0020  3420               	retlw	32	;' '
   444  0021  3420               	retlw	32	;' '
   445  0022  3420               	retlw	32	;' '
   446  0023  3420               	retlw	32	;' '
   447  0024  3420               	retlw	32	;' '
   448  0025  3420               	retlw	32	;' '
   449  0026  342E               	retlw	46	;'.'
   450  0027  3420               	retlw	32	;' '
   451  0028  3420               	retlw	32	;' '
   452  0029  3456               	retlw	86	;'V'
   453  002A  3400               	retlw	0
   454  002B                     STR_3:	
   455  002B  344C               	retlw	76	;'L'
   456  002C  3441               	retlw	65	;'A'
   457  002D  3442               	retlw	66	;'B'
   458  002E  344F               	retlw	79	;'O'
   459  002F  3452               	retlw	82	;'R'
   460  0030  3441               	retlw	65	;'A'
   461  0031  3454               	retlw	84	;'T'
   462  0032  344F               	retlw	79	;'O'
   463  0033  3452               	retlw	82	;'R'
   464  0034  3449               	retlw	73	;'I'
   465  0035  344F               	retlw	79	;'O'
   466  0036  3420               	retlw	32	;' '
   467  0037  3435               	retlw	53	;'5'
   468  0038  3420               	retlw	32	;' '
   469  0039  3420               	retlw	32	;' '
   470  003A  3400               	retlw	0
   471  003B                     STR_1:	
   472  003B  3445               	retlw	69	;'E'
   473  003C  3473               	retlw	115	;'s'
   474  003D  3474               	retlw	116	;'t'
   475  003E  3475               	retlw	117	;'u'
   476  003F  3461               	retlw	97	;'a'
   477  0040  3472               	retlw	114	;'r'
   478  0041  3464               	retlw	100	;'d'
   479  0042  346F               	retlw	111	;'o'
   480  0043  3420               	retlw	32	;' '
   481  0044  344D               	retlw	77	;'M'
   482  0045  3461               	retlw	97	;'a'
   483  0046  346E               	retlw	110	;'n'
   484  0047  3463               	retlw	99	;'c'
   485  0048  3469               	retlw	105	;'i'
   486  0049  346F               	retlw	111	;'o'
   487  004A  3400               	retlw	0
   488  004B                     STR_4:	
   489  004B  3449               	retlw	73	;'I'
   490  004C  3432               	retlw	50	;'2'
   491  004D  3443               	retlw	67	;'C'
   492  004E  3420               	retlw	32	;' '
   493  004F  3420               	retlw	32	;' '
   494  0050  3400               	retlw	0
   495  0051                     STR_2:	
   496  0051  3431               	retlw	49	;'1'
   497  0052  3438               	retlw	56	;'8'
   498  0053  3430               	retlw	48	;'0'
   499  0054  3432               	retlw	50	;'2'
   500  0055  3437               	retlw	55	;'7'
   501  0056  3400               	retlw	0
   502  0057                     STR_7:	
   503  0057  3430               	retlw	48	;'0'
   504  0058  3430               	retlw	48	;'0'
   505  0059  3400               	retlw	0
   506  005A                     STR_17:	
   507  005A  3431               	retlw	49	;'1'
   508  005B  3430               	retlw	48	;'0'
   509  005C  3400               	retlw	0
   510  005D                     STR_8:	
   511  005D  3430               	retlw	48	;'0'
   512  005E  3431               	retlw	49	;'1'
   513  005F  3400               	retlw	0
   514  0060                     STR_18:	
   515  0060  3431               	retlw	49	;'1'
   516  0061  3431               	retlw	49	;'1'
   517  0062  3400               	retlw	0
   518  0063                     STR_9:	
   519  0063  3430               	retlw	48	;'0'
   520  0064  3432               	retlw	50	;'2'
   521  0065  3400               	retlw	0
   522  0066                     STR_19:	
   523  0066  3431               	retlw	49	;'1'
   524  0067  3432               	retlw	50	;'2'
   525  0068  3400               	retlw	0
   526  0069                     STR_10:	
   527  0069  3430               	retlw	48	;'0'
   528  006A  3433               	retlw	51	;'3'
   529  006B  3400               	retlw	0
   530  006C                     STR_20:	
   531  006C  3431               	retlw	49	;'1'
   532  006D  3433               	retlw	51	;'3'
   533  006E  3400               	retlw	0
   534  006F                     STR_11:	
   535  006F  3430               	retlw	48	;'0'
   536  0070  3434               	retlw	52	;'4'
   537  0071  3400               	retlw	0
   538  0072                     STR_21:	
   539  0072  3431               	retlw	49	;'1'
   540  0073  3434               	retlw	52	;'4'
   541  0074  3400               	retlw	0
   542  0075                     STR_12:	
   543  0075  3430               	retlw	48	;'0'
   544  0076  3435               	retlw	53	;'5'
   545  0077  3400               	retlw	0
   546  0078                     STR_22:	
   547  0078  3431               	retlw	49	;'1'
   548  0079  3435               	retlw	53	;'5'
   549  007A  3400               	retlw	0
   550  007B                     STR_13:	
   551  007B  3430               	retlw	48	;'0'
   552  007C  3436               	retlw	54	;'6'
   553  007D  3400               	retlw	0
   554  007E                     STR_23:	
   555  007E  3431               	retlw	49	;'1'
   556  007F  3436               	retlw	54	;'6'
   557  0080  3400               	retlw	0
   558  0081                     STR_14:	
   559  0081  3430               	retlw	48	;'0'
   560  0082  3437               	retlw	55	;'7'
   561  0083  3400               	retlw	0
   562  0084                     STR_15:	
   563  0084  3430               	retlw	48	;'0'
   564  0085  3438               	retlw	56	;'8'
   565  0086  3400               	retlw	0
   566  0087                     STR_16:	
   567  0087  3430               	retlw	48	;'0'
   568  0088  3439               	retlw	57	;'9'
   569  0089  3400               	retlw	0
   570  0058                     
   571                           ; #config settings
   572  0000                     
   573                           	psect	cinit
   574  07F3                     start_initialization:	
   575  07F3                     __initialization:	
   576                           
   577                           ; Clear objects allocated to BANK0
   578  07F3  1383               	bcf	3,7	;select IRP bank0
   579  07F4  303A               	movlw	low __pbssBANK0
   580  07F5  0084               	movwf	4
   581  07F6  3050               	movlw	low (__pbssBANK0+22)
   582  07F7  120A  158A  25A2  120A  118A  	fcall	clear_ram0
   583  07FC                     end_of_initialization:	
   584                           ;End of C runtime variable initialization code
   585                           
   586  07FC                     __end_of__initialization:	
   587  07FC  0183               	clrf	3
   588  07FD  120A  118A  2905   	ljmp	_main	;jump to C main() function
   589                           
   590                           	psect	bssBANK0
   591  003A                     __pbssBANK0:	
   592  003A                     FOTORESIS@F1358:	
   593  003A                     	ds	6
   594  0040                     POTENCIOMETRO@F1348:	
   595  0040                     	ds	6
   596  0046                     _dus:	
   597  0046                     	ds	2
   598  0048                     _dms:	
   599  0048                     	ds	2
   600  004A                     _FOTO:	
   601  004A                     	ds	2
   602  004C                     _CONT:	
   603  004C                     	ds	2
   604  004E                     _POT:	
   605  004E                     	ds	2
   606                           
   607                           	psect	clrtext
   608  0DA2                     clear_ram0:	
   609                           ;	Called with FSR containing the base address, and
   610                           ;	W with the last address+1
   611                           
   612  0DA2  0064               	clrwdt	;clear the watchdog before getting into this loop
   613  0DA3                     clrloop0:	
   614  0DA3  0180               	clrf	0	;clear RAM location pointed to by FSR
   615  0DA4  0A84               	incf	4,f	;increment pointer
   616  0DA5  0604               	xorwf	4,w	;XOR with final address
   617  0DA6  1903               	btfsc	3,2	;have we reached the end yet?
   618  0DA7  3400               	retlw	0	;all done for this memory range, return
   619  0DA8  0604               	xorwf	4,w	;XOR again to restore value
   620  0DA9  2DA3               	goto	clrloop0	;do the next byte
   621                           
   622                           	psect	cstackCOMMON
   623  0070                     __pcstackCOMMON:	
   624  0070                     ?_LCDvalue:	
   625  0070                     ?_clean:	
   626                           ; 1 bytes @ 0x0
   627                           
   628  0070                     ?_delay_ms:	
   629                           ; 1 bytes @ 0x0
   630                           
   631  0070                     ?_I2C_Master_Start:	
   632                           ; 1 bytes @ 0x0
   633                           
   634  0070                     ??_I2C_Master_Start:	
   635                           ; 1 bytes @ 0x0
   636                           
   637  0070                     ?_I2C_Master_Write:	
   638                           ; 1 bytes @ 0x0
   639                           
   640  0070                     ?_I2C_Master_Stop:	
   641                           ; 1 bytes @ 0x0
   642                           
   643  0070                     ??_I2C_Master_Stop:	
   644                           ; 1 bytes @ 0x0
   645                           
   646  0070                     ?_POTENCIOMETRO:	
   647                           ; 1 bytes @ 0x0
   648                           
   649  0070                     ?_FOTORESIS:	
   650                           ; 1 bytes @ 0x0
   651                           
   652  0070                     ?_Properties:	
   653                           ; 1 bytes @ 0x0
   654                           
   655  0070                     ?_main:	
   656                           ; 1 bytes @ 0x0
   657                           
   658  0070                     ?_delay_us:	
   659                           ; 1 bytes @ 0x0
   660                           
   661  0070                     ?_Tiempocontrol:	
   662                           ; 1 bytes @ 0x0
   663                           
   664  0070                     ?_Control:	
   665                           ; 1 bytes @ 0x0
   666                           
   667  0070                     ?_ON:	
   668                           ; 1 bytes @ 0x0
   669                           
   670  0070                     ?_impresion:	
   671                           ; 1 bytes @ 0x0
   672                           
   673  0070                     ?_I2C_Master_Wait:	
   674                           ; 1 bytes @ 0x0
   675                           
   676  0070                     ??_I2C_Master_Wait:	
   677                           ; 1 bytes @ 0x0
   678                           
   679  0070                     ?_I2C_Master_Read:	
   680                           ; 1 bytes @ 0x0
   681                           
   682  0070                     ?___awmod:	
   683                           ; 2 bytes @ 0x0
   684                           
   685  0070                     ?___lldiv:	
   686                           ; 2 bytes @ 0x0
   687                           
   688  0070                     delay_ms@dms:	
   689                           ; 4 bytes @ 0x0
   690                           
   691  0070                     delay_us@dus:	
   692                           ; 2 bytes @ 0x0
   693                           
   694  0070                     I2C_Master_Write@d:	
   695                           ; 2 bytes @ 0x0
   696                           
   697  0070                     I2C_Master_Read@a:	
   698                           ; 2 bytes @ 0x0
   699                           
   700  0070                     ___awmod@divisor:	
   701                           ; 2 bytes @ 0x0
   702                           
   703  0070                     ___lldiv@divisor:	
   704                           ; 2 bytes @ 0x0
   705                           
   706                           
   707                           ; 4 bytes @ 0x0
   708  0070                     	ds	2
   709  0072                     ??_delay_ms:	
   710  0072                     ??_I2C_Master_Write:	
   711                           ; 1 bytes @ 0x2
   712                           
   713  0072                     ??_I2C_Master_Read:	
   714                           ; 1 bytes @ 0x2
   715                           
   716  0072                     ??_delay_us:	
   717                           ; 1 bytes @ 0x2
   718                           
   719  0072                     ___awmod@dividend:	
   720                           ; 1 bytes @ 0x2
   721                           
   722                           
   723                           ; 2 bytes @ 0x2
   724  0072                     	ds	1
   725  0073                     delay_ms@i:	
   726  0073                     delay_us@i:	
   727                           ; 2 bytes @ 0x3
   728                           
   729                           
   730                           ; 2 bytes @ 0x3
   731  0073                     	ds	1
   732  0074                     ??___awmod:	
   733  0074                     I2C_Master_Read@temp:	
   734                           ; 1 bytes @ 0x4
   735                           
   736  0074                     ___lldiv@dividend:	
   737                           ; 2 bytes @ 0x4
   738                           
   739                           
   740                           ; 4 bytes @ 0x4
   741  0074                     	ds	1
   742  0075                     ??_Tiempocontrol:	
   743  0075                     ??_ON:	
   744                           ; 1 bytes @ 0x5
   745                           
   746  0075                     ON@valor1:	
   747                           ; 1 bytes @ 0x5
   748                           
   749  0075                     ___awmod@counter:	
   750                           ; 1 bytes @ 0x5
   751                           
   752  0075                     delay_ms@j:	
   753                           ; 1 bytes @ 0x5
   754                           
   755                           
   756                           ; 2 bytes @ 0x5
   757  0075                     	ds	1
   758  0076                     ??_impresion:	
   759  0076                     ___awmod@sign:	
   760                           ; 1 bytes @ 0x6
   761                           
   762                           
   763                           ; 1 bytes @ 0x6
   764  0076                     	ds	1
   765  0077                     ??_Control:	
   766  0077                     ?___awdiv:	
   767                           ; 1 bytes @ 0x7
   768                           
   769  0077                     Control@valor:	
   770                           ; 2 bytes @ 0x7
   771                           
   772  0077                     impresion@valor:	
   773                           ; 1 bytes @ 0x7
   774                           
   775  0077                     ___awdiv@divisor:	
   776                           ; 1 bytes @ 0x7
   777                           
   778                           
   779                           ; 2 bytes @ 0x7
   780  0077                     	ds	1
   781  0078                     ??_LCDvalue:	
   782  0078                     ??_clean:	
   783                           ; 1 bytes @ 0x8
   784                           
   785  0078                     ?_lcddirection:	
   786                           ; 1 bytes @ 0x8
   787                           
   788  0078                     ??___lldiv:	
   789                           ; 1 bytes @ 0x8
   790                           
   791  0078                     lcddirection@x:	
   792                           ; 1 bytes @ 0x8
   793                           
   794                           
   795                           ; 2 bytes @ 0x8
   796  0078                     	ds	1
   797  0079                     ___awdiv@dividend:	
   798  0079                     ___lldiv@quotient:	
   799                           ; 2 bytes @ 0x9
   800                           
   801                           
   802                           ; 4 bytes @ 0x9
   803  0079                     	ds	1
   804  007A                     lcddirection@y:	
   805                           
   806                           ; 2 bytes @ 0xA
   807  007A                     	ds	1
   808  007B                     ??___awdiv:	
   809                           
   810                           ; 1 bytes @ 0xB
   811  007B                     	ds	1
   812  007C                     lcddirection@valor:	
   813                           
   814                           ; 1 bytes @ 0xC
   815  007C                     	ds	1
   816  007D                     ??_lcddirection:	
   817  007D                     ___lldiv@counter:	
   818                           ; 1 bytes @ 0xD
   819                           
   820                           
   821                           ; 1 bytes @ 0xD
   822  007D                     	ds	1
   823  007E                     ??_Properties:	
   824                           
   825                           	psect	cstackBANK0
   826  0020                     __pcstackBANK0:	
   827                           ; 1 bytes @ 0xE
   828                           
   829  0020                     ?_I2C_Master_Init:	
   830  0020                     lcddirection@posicion:	
   831                           ; 1 bytes @ 0x0
   832                           
   833  0020                     ___awdiv@counter:	
   834                           ; 1 bytes @ 0x0
   835                           
   836  0020                     I2C_Master_Init@c:	
   837                           ; 1 bytes @ 0x0
   838                           
   839                           
   840                           ; 4 bytes @ 0x0
   841  0020                     	ds	1
   842  0021                     ?_LCDCONT:	
   843  0021                     ___awdiv@sign:	
   844                           ; 1 bytes @ 0x1
   845                           
   846  0021                     LCDCONT@x:	
   847                           ; 1 bytes @ 0x1
   848                           
   849                           
   850                           ; 2 bytes @ 0x1
   851  0021                     	ds	1
   852  0022                     ___awdiv@quotient:	
   853                           
   854                           ; 2 bytes @ 0x2
   855  0022                     	ds	1
   856  0023                     LCDCONT@z:	
   857                           
   858                           ; 2 bytes @ 0x3
   859  0023                     	ds	1
   860  0024                     ??_I2C_Master_Init:	
   861  0024                     ??_POTENCIOMETRO:	
   862                           ; 1 bytes @ 0x4
   863                           
   864  0024                     ??_FOTORESIS:	
   865                           ; 1 bytes @ 0x4
   866                           
   867                           
   868                           ; 1 bytes @ 0x4
   869  0024                     	ds	1
   870  0025                     ??_LCDCONT:	
   871                           
   872                           ; 1 bytes @ 0x5
   873  0025                     	ds	4
   874  0029                     POTENCIOMETRO@numero:	
   875  0029                     FOTORESIS@numero:	
   876                           ; 6 bytes @ 0x9
   877                           
   878                           
   879                           ; 6 bytes @ 0x9
   880  0029                     	ds	6
   881  002F                     POTENCIOMETRO@unidades:	
   882  002F                     FOTORESIS@unidades:	
   883                           ; 1 bytes @ 0xF
   884                           
   885                           
   886                           ; 1 bytes @ 0xF
   887  002F                     	ds	1
   888  0030                     POTENCIOMETRO@decimas:	
   889  0030                     FOTORESIS@decimas:	
   890                           ; 1 bytes @ 0x10
   891                           
   892                           
   893                           ; 1 bytes @ 0x10
   894  0030                     	ds	1
   895  0031                     POTENCIOMETRO@centesimas:	
   896  0031                     FOTORESIS@centesimas:	
   897                           ; 1 bytes @ 0x11
   898                           
   899                           
   900                           ; 1 bytes @ 0x11
   901  0031                     	ds	1
   902  0032                     _POTENCIOMETRO$951:	
   903  0032                     _FOTORESIS$952:	
   904                           ; 2 bytes @ 0x12
   905                           
   906                           
   907                           ; 2 bytes @ 0x12
   908  0032                     	ds	2
   909  0034                     POTENCIOMETRO@i:	
   910  0034                     FOTORESIS@i:	
   911                           ; 2 bytes @ 0x14
   912                           
   913                           
   914                           ; 2 bytes @ 0x14
   915  0034                     	ds	2
   916  0036                     POTENCIOMETRO@result:	
   917  0036                     FOTORESIS@result:	
   918                           ; 1 bytes @ 0x16
   919                           
   920                           
   921                           ; 1 bytes @ 0x16
   922  0036                     	ds	1
   923  0037                     POTENCIOMETRO@valor:	
   924  0037                     FOTORESIS@valor:	
   925                           ; 1 bytes @ 0x17
   926                           
   927                           
   928                           ; 1 bytes @ 0x17
   929  0037                     	ds	1
   930  0038                     POTENCIOMETRO@coordenada:	
   931  0038                     FOTORESIS@coordenada:	
   932                           ; 1 bytes @ 0x18
   933                           
   934                           
   935                           ; 1 bytes @ 0x18
   936  0038                     	ds	1
   937  0039                     ??_main:	
   938                           
   939                           ; 1 bytes @ 0x19
   940  0039                     	ds	1
   941                           
   942                           	psect	maintext
   943  0105                     __pmaintext:	
   944 ;;
   945 ;;Main: autosize = 0, tempsize = 1, incstack = 0, save=0
   946 ;;
   947 ;; *************** function _main *****************
   948 ;; Defined at:
   949 ;;		line 42 in file "MASTALCD.c"
   950 ;; Parameters:    Size  Location     Type
   951 ;;		None
   952 ;; Auto vars:     Size  Location     Type
   953 ;;		None
   954 ;; Return value:  Size  Location     Type
   955 ;;                  1    wreg      void 
   956 ;; Registers used:
   957 ;;		wreg, fsr0l, fsr0h, status,2, status,0, btemp+1, pclath, cstack
   958 ;; Tracked objects:
   959 ;;		On entry : B00/0
   960 ;;		On exit  : 0/0
   961 ;;		Unchanged: 0/0
   962 ;; Data sizes:     COMMON   BANK0   BANK1   BANK3   BANK2
   963 ;;      Params:         0       0       0       0       0
   964 ;;      Locals:         0       0       0       0       0
   965 ;;      Temps:          0       1       0       0       0
   966 ;;      Totals:         0       1       0       0       0
   967 ;;Total ram usage:        1 bytes
   968 ;; Hardware stack levels required when called:    6
   969 ;; This function calls:
   970 ;;		_FOTORESIS
   971 ;;		_I2C_Master_Read
   972 ;;		_I2C_Master_Start
   973 ;;		_I2C_Master_Stop
   974 ;;		_I2C_Master_Write
   975 ;;		_LCDCONT
   976 ;;		_LCDvalue
   977 ;;		_POTENCIOMETRO
   978 ;;		_Properties
   979 ;;		_clean
   980 ;;		_delay_ms
   981 ;;		_lcddirection
   982 ;; This function is called by:
   983 ;;		Startup code after reset
   984 ;; This function uses a non-reentrant model
   985 ;;
   986                           
   987                           
   988                           ;psect for function _main
   989  0105                     _main:	
   990  0105                     l1847:	
   991                           ;incstack = 0
   992                           ; Regs used in _main: [wreg-fsr0h+status,2+status,0+btemp+1+pclath+cstack]
   993                           
   994                           
   995                           ;MASTALCD.c: 43:     LCDvalue();
   996  0105  120A  158A  2682  120A  118A  	fcall	_LCDvalue
   997                           
   998                           ;MASTALCD.c: 44:     clean();
   999  010A  120A  158A  259B  120A  118A  	fcall	_clean
  1000  010F                     l1849:	
  1001                           
  1002                           ;MASTALCD.c: 45:     lcddirection(0,1,"Estuardo Mancio");
  1003  010F  3000               	movlw	0
  1004  0110  00F8               	movwf	lcddirection@x
  1005  0111  00F9               	movwf	lcddirection@x+1
  1006  0112  3001               	movlw	1
  1007  0113  00FA               	movwf	lcddirection@y
  1008  0114  3000               	movlw	0
  1009  0115  00FB               	movwf	lcddirection@y+1
  1010  0116  3033               	movlw	(low ((STR_1-__stringbase)| (0+32768)))& (0+255)
  1011  0117  1283               	bcf	3,5	;RP0=0, select bank0
  1012  0118  1303               	bcf	3,6	;RP1=0, select bank0
  1013  0119  00B9               	movwf	??_main
  1014  011A  0839               	movf	??_main,w
  1015  011B  00FC               	movwf	lcddirection@valor
  1016  011C  120A  158A  2657  120A  118A  	fcall	_lcddirection
  1017  0121                     l1851:	
  1018                           
  1019                           ;MASTALCD.c: 46:     lcddirection(5,2,"18027");
  1020  0121  3005               	movlw	5
  1021  0122  00F8               	movwf	lcddirection@x
  1022  0123  3000               	movlw	0
  1023  0124  00F9               	movwf	lcddirection@x+1
  1024  0125  3002               	movlw	2
  1025  0126  00FA               	movwf	lcddirection@y
  1026  0127  3000               	movlw	0
  1027  0128  00FB               	movwf	lcddirection@y+1
  1028  0129  3049               	movlw	(low ((STR_2-__stringbase)| (0+32768)))& (0+255)
  1029  012A  1283               	bcf	3,5	;RP0=0, select bank0
  1030  012B  1303               	bcf	3,6	;RP1=0, select bank0
  1031  012C  00B9               	movwf	??_main
  1032  012D  0839               	movf	??_main,w
  1033  012E  00FC               	movwf	lcddirection@valor
  1034  012F  120A  158A  2657  120A  118A  	fcall	_lcddirection
  1035                           
  1036                           ;MASTALCD.c: 47:     delay_ms(130);
  1037  0134  3082               	movlw	130
  1038  0135  00F0               	movwf	delay_ms@dms
  1039  0136  3000               	movlw	0
  1040  0137  00F1               	movwf	delay_ms@dms+1
  1041  0138  120A  158A  26AE  120A  118A  	fcall	_delay_ms
  1042  013D                     l1853:	
  1043                           
  1044                           ;MASTALCD.c: 48:     lcddirection(0,1,"LABORATORIO 5  ");
  1045  013D  3000               	movlw	0
  1046  013E  00F8               	movwf	lcddirection@x
  1047  013F  00F9               	movwf	lcddirection@x+1
  1048  0140  3001               	movlw	1
  1049  0141  00FA               	movwf	lcddirection@y
  1050  0142  3000               	movlw	0
  1051  0143  00FB               	movwf	lcddirection@y+1
  1052  0144  3023               	movlw	(low ((STR_3-__stringbase)| (0+32768)))& (0+255)
  1053  0145  1283               	bcf	3,5	;RP0=0, select bank0
  1054  0146  1303               	bcf	3,6	;RP1=0, select bank0
  1055  0147  00B9               	movwf	??_main
  1056  0148  0839               	movf	??_main,w
  1057  0149  00FC               	movwf	lcddirection@valor
  1058  014A  120A  158A  2657  120A  118A  	fcall	_lcddirection
  1059  014F                     l1855:	
  1060                           
  1061                           ;MASTALCD.c: 49:     lcddirection(5,2,"I2C  ");
  1062  014F  3005               	movlw	5
  1063  0150  00F8               	movwf	lcddirection@x
  1064  0151  3000               	movlw	0
  1065  0152  00F9               	movwf	lcddirection@x+1
  1066  0153  3002               	movlw	2
  1067  0154  00FA               	movwf	lcddirection@y
  1068  0155  3000               	movlw	0
  1069  0156  00FB               	movwf	lcddirection@y+1
  1070  0157  3043               	movlw	(low ((STR_4-__stringbase)| (0+32768)))& (0+255)
  1071  0158  1283               	bcf	3,5	;RP0=0, select bank0
  1072  0159  1303               	bcf	3,6	;RP1=0, select bank0
  1073  015A  00B9               	movwf	??_main
  1074  015B  0839               	movf	??_main,w
  1075  015C  00FC               	movwf	lcddirection@valor
  1076  015D  120A  158A  2657  120A  118A  	fcall	_lcddirection
  1077                           
  1078                           ;MASTALCD.c: 50:     delay_ms(500);
  1079  0162  30F4               	movlw	244
  1080  0163  00F0               	movwf	delay_ms@dms
  1081  0164  3001               	movlw	1
  1082  0165  00F1               	movwf	delay_ms@dms+1
  1083  0166  120A  158A  26AE  120A  118A  	fcall	_delay_ms
  1084  016B                     l1857:	
  1085                           
  1086                           ;MASTALCD.c: 51:     lcddirection(0,1,"ADC  COUNTER FOT");
  1087  016B  3000               	movlw	0
  1088  016C  00F8               	movwf	lcddirection@x
  1089  016D  00F9               	movwf	lcddirection@x+1
  1090  016E  3001               	movlw	1
  1091  016F  00FA               	movwf	lcddirection@y
  1092  0170  3000               	movlw	0
  1093  0171  00FB               	movwf	lcddirection@y+1
  1094  0172  3001               	movlw	(low ((STR_5-__stringbase)| (0+32768)))& (0+255)
  1095  0173  1283               	bcf	3,5	;RP0=0, select bank0
  1096  0174  1303               	bcf	3,6	;RP1=0, select bank0
  1097  0175  00B9               	movwf	??_main
  1098  0176  0839               	movf	??_main,w
  1099  0177  00FC               	movwf	lcddirection@valor
  1100  0178  120A  158A  2657  120A  118A  	fcall	_lcddirection
  1101  017D                     l1859:	
  1102                           
  1103                           ;MASTALCD.c: 52:     lcddirection(0,2," .  V       .  V");
  1104  017D  3000               	movlw	0
  1105  017E  00F8               	movwf	lcddirection@x
  1106  017F  00F9               	movwf	lcddirection@x+1
  1107  0180  3002               	movlw	2
  1108  0181  00FA               	movwf	lcddirection@y
  1109  0182  3000               	movlw	0
  1110  0183  00FB               	movwf	lcddirection@y+1
  1111  0184  3012               	movlw	(low ((STR_6-__stringbase)| (0+32768)))& (0+255)
  1112  0185  1283               	bcf	3,5	;RP0=0, select bank0
  1113  0186  1303               	bcf	3,6	;RP1=0, select bank0
  1114  0187  00B9               	movwf	??_main
  1115  0188  0839               	movf	??_main,w
  1116  0189  00FC               	movwf	lcddirection@valor
  1117  018A  120A  158A  2657  120A  118A  	fcall	_lcddirection
  1118  018F                     l1861:	
  1119                           
  1120                           ;MASTALCD.c: 53:     Properties();
  1121  018F  120A  158A  25F0  120A  118A  	fcall	_Properties
  1122  0194                     l1863:	
  1123                           
  1124                           ;MASTALCD.c: 56:         I2C_Master_Start();
  1125  0194  120A  158A  25AA  120A  118A  	fcall	_I2C_Master_Start
  1126  0199                     l1865:	
  1127                           
  1128                           ;MASTALCD.c: 57:         I2C_Master_Write(0x31);
  1129  0199  3031               	movlw	49
  1130  019A  00F0               	movwf	I2C_Master_Write@d
  1131  019B  3000               	movlw	0
  1132  019C  00F1               	movwf	I2C_Master_Write@d+1
  1133  019D  120A  158A  25BC  120A  118A  	fcall	_I2C_Master_Write
  1134  01A2                     l1867:	
  1135                           
  1136                           ;MASTALCD.c: 58:         POT = I2C_Master_Read(0);
  1137  01A2  3000               	movlw	0
  1138  01A3  00F0               	movwf	I2C_Master_Read@a
  1139  01A4  00F1               	movwf	I2C_Master_Read@a+1
  1140  01A5  120A  158A  26DB  120A  118A  	fcall	_I2C_Master_Read
  1141  01AA  0871               	movf	?_I2C_Master_Read+1,w
  1142  01AB  1283               	bcf	3,5	;RP0=0, select bank0
  1143  01AC  1303               	bcf	3,6	;RP1=0, select bank0
  1144  01AD  00CF               	movwf	_POT+1
  1145  01AE  0870               	movf	?_I2C_Master_Read,w
  1146  01AF  00CE               	movwf	_POT
  1147  01B0                     l1869:	
  1148                           
  1149                           ;MASTALCD.c: 59:         I2C_Master_Stop();
  1150  01B0  120A  158A  25B3  120A  118A  	fcall	_I2C_Master_Stop
  1151  01B5                     l1871:	
  1152                           
  1153                           ;MASTALCD.c: 61:         delay_ms(20);
  1154  01B5  3014               	movlw	20
  1155  01B6  00F0               	movwf	delay_ms@dms
  1156  01B7  3000               	movlw	0
  1157  01B8  00F1               	movwf	delay_ms@dms+1
  1158  01B9  120A  158A  26AE  120A  118A  	fcall	_delay_ms
  1159                           
  1160                           ;MASTALCD.c: 63:         I2C_Master_Start();
  1161  01BE  120A  158A  25AA  120A  118A  	fcall	_I2C_Master_Start
  1162                           
  1163                           ;MASTALCD.c: 64:         I2C_Master_Write(0x33);
  1164  01C3  3033               	movlw	51
  1165  01C4  00F0               	movwf	I2C_Master_Write@d
  1166  01C5  3000               	movlw	0
  1167  01C6  00F1               	movwf	I2C_Master_Write@d+1
  1168  01C7  120A  158A  25BC  120A  118A  	fcall	_I2C_Master_Write
  1169                           
  1170                           ;MASTALCD.c: 65:         CONT = I2C_Master_Read(0);
  1171  01CC  3000               	movlw	0
  1172  01CD  00F0               	movwf	I2C_Master_Read@a
  1173  01CE  00F1               	movwf	I2C_Master_Read@a+1
  1174  01CF  120A  158A  26DB  120A  118A  	fcall	_I2C_Master_Read
  1175  01D4  0871               	movf	?_I2C_Master_Read+1,w
  1176  01D5  1283               	bcf	3,5	;RP0=0, select bank0
  1177  01D6  1303               	bcf	3,6	;RP1=0, select bank0
  1178  01D7  00CD               	movwf	_CONT+1
  1179  01D8  0870               	movf	?_I2C_Master_Read,w
  1180  01D9  00CC               	movwf	_CONT
  1181                           
  1182                           ;MASTALCD.c: 66:         I2C_Master_Stop();
  1183  01DA  120A  158A  25B3  120A  118A  	fcall	_I2C_Master_Stop
  1184  01DF                     l1873:	
  1185                           
  1186                           ;MASTALCD.c: 68:         delay_ms(20);
  1187  01DF  3014               	movlw	20
  1188  01E0  00F0               	movwf	delay_ms@dms
  1189  01E1  3000               	movlw	0
  1190  01E2  00F1               	movwf	delay_ms@dms+1
  1191  01E3  120A  158A  26AE  120A  118A  	fcall	_delay_ms
  1192  01E8                     l1875:	
  1193                           
  1194                           ;MASTALCD.c: 70:         I2C_Master_Start();
  1195  01E8  120A  158A  25AA  120A  118A  	fcall	_I2C_Master_Start
  1196  01ED                     l1877:	
  1197                           
  1198                           ;MASTALCD.c: 71:         I2C_Master_Write(0x35);
  1199  01ED  3035               	movlw	53
  1200  01EE  00F0               	movwf	I2C_Master_Write@d
  1201  01EF  3000               	movlw	0
  1202  01F0  00F1               	movwf	I2C_Master_Write@d+1
  1203  01F1  120A  158A  25BC  120A  118A  	fcall	_I2C_Master_Write
  1204  01F6                     l1879:	
  1205                           
  1206                           ;MASTALCD.c: 72:         FOTO = I2C_Master_Read(0);
  1207  01F6  3000               	movlw	0
  1208  01F7  00F0               	movwf	I2C_Master_Read@a
  1209  01F8  00F1               	movwf	I2C_Master_Read@a+1
  1210  01F9  120A  158A  26DB  120A  118A  	fcall	_I2C_Master_Read
  1211  01FE  0871               	movf	?_I2C_Master_Read+1,w
  1212  01FF  1283               	bcf	3,5	;RP0=0, select bank0
  1213  0200  1303               	bcf	3,6	;RP1=0, select bank0
  1214  0201  00CB               	movwf	_FOTO+1
  1215  0202  0870               	movf	?_I2C_Master_Read,w
  1216  0203  00CA               	movwf	_FOTO
  1217  0204                     l1881:	
  1218                           
  1219                           ;MASTALCD.c: 73:         I2C_Master_Stop();
  1220  0204  120A  158A  25B3  120A  118A  	fcall	_I2C_Master_Stop
  1221  0209                     l1883:	
  1222                           
  1223                           ;MASTALCD.c: 74:         delay_ms(20);
  1224  0209  3014               	movlw	20
  1225  020A  00F0               	movwf	delay_ms@dms
  1226  020B  3000               	movlw	0
  1227  020C  00F1               	movwf	delay_ms@dms+1
  1228  020D  120A  158A  26AE  120A  118A  	fcall	_delay_ms
  1229  0212                     l1885:	
  1230                           
  1231                           ;MASTALCD.c: 76:         LCDCONT(7,CONT);
  1232  0212  3007               	movlw	7
  1233  0213  1283               	bcf	3,5	;RP0=0, select bank0
  1234  0214  1303               	bcf	3,6	;RP1=0, select bank0
  1235  0215  00A1               	movwf	LCDCONT@x
  1236  0216  3000               	movlw	0
  1237  0217  00A2               	movwf	LCDCONT@x+1
  1238  0218  084D               	movf	_CONT+1,w
  1239  0219  00A4               	movwf	LCDCONT@z+1
  1240  021A  084C               	movf	_CONT,w
  1241  021B  00A3               	movwf	LCDCONT@z
  1242  021C  120A  118A  2235  120A  118A  	fcall	_LCDCONT
  1243  0221                     l1887:	
  1244                           
  1245                           ;MASTALCD.c: 77:         POTENCIOMETRO(POT);
  1246  0221  1283               	bcf	3,5	;RP0=0, select bank0
  1247  0222  1303               	bcf	3,6	;RP1=0, select bank0
  1248  0223  084E               	movf	_POT,w
  1249  0224  120A  118A  23A2  120A  118A  	fcall	_POTENCIOMETRO
  1250  0229                     l1889:	
  1251                           
  1252                           ;MASTALCD.c: 78:         FOTORESIS(FOTO);
  1253  0229  1283               	bcf	3,5	;RP0=0, select bank0
  1254  022A  1303               	bcf	3,6	;RP1=0, select bank0
  1255  022B  084A               	movf	_FOTO,w
  1256  022C  120A  118A  25C9  120A  118A  	fcall	_FOTORESIS
  1257  0231  2994               	goto	l1863
  1258  0232  120A  118A  2800   	ljmp	start
  1259  0235                     __end_of_main:	
  1260                           
  1261                           	psect	text1
  1262  0D9B                     __ptext1:	
  1263 ;; *************** function _clean *****************
  1264 ;; Defined at:
  1265 ;;		line 255 in file "LibreriaLCD.c"
  1266 ;; Parameters:    Size  Location     Type
  1267 ;;		None
  1268 ;; Auto vars:     Size  Location     Type
  1269 ;;		None
  1270 ;; Return value:  Size  Location     Type
  1271 ;;                  1    wreg      void 
  1272 ;; Registers used:
  1273 ;;		wreg, status,2, status,0, btemp+1, pclath, cstack
  1274 ;; Tracked objects:
  1275 ;;		On entry : 0/0
  1276 ;;		On exit  : 0/0
  1277 ;;		Unchanged: 0/0
  1278 ;; Data sizes:     COMMON   BANK0   BANK1   BANK3   BANK2
  1279 ;;      Params:         0       0       0       0       0
  1280 ;;      Locals:         0       0       0       0       0
  1281 ;;      Temps:          0       0       0       0       0
  1282 ;;      Totals:         0       0       0       0       0
  1283 ;;Total ram usage:        0 bytes
  1284 ;; Hardware stack levels used:    1
  1285 ;; Hardware stack levels required when called:    3
  1286 ;; This function calls:
  1287 ;;		_Control
  1288 ;; This function is called by:
  1289 ;;		_main
  1290 ;; This function uses a non-reentrant model
  1291 ;;
  1292                           
  1293                           
  1294                           ;psect for function _clean
  1295  0D9B                     _clean:	
  1296  0D9B                     l1593:	
  1297                           ;incstack = 0
  1298                           ; Regs used in _clean: [wreg+status,2+status,0+btemp+1+pclath+cstack]
  1299                           
  1300                           
  1301                           ;LibreriaLCD.c: 256:     Control(0x01);
  1302  0D9B  3001               	movlw	1
  1303  0D9C  120A  158A  25C6  120A  158A  	fcall	_Control
  1304  0DA1                     l166:	
  1305  0DA1  0008               	return
  1306  0DA2                     __end_of_clean:	
  1307                           
  1308                           	psect	text2
  1309  0DF0                     __ptext2:	
  1310 ;; *************** function _Properties *****************
  1311 ;; Defined at:
  1312 ;;		line 35 in file "MASTALCD.c"
  1313 ;; Parameters:    Size  Location     Type
  1314 ;;		None
  1315 ;; Auto vars:     Size  Location     Type
  1316 ;;		None
  1317 ;; Return value:  Size  Location     Type
  1318 ;;                  1    wreg      void 
  1319 ;; Registers used:
  1320 ;;		wreg, status,2, status,0, pclath, cstack
  1321 ;; Tracked objects:
  1322 ;;		On entry : 0/0
  1323 ;;		On exit  : 0/0
  1324 ;;		Unchanged: 0/0
  1325 ;; Data sizes:     COMMON   BANK0   BANK1   BANK3   BANK2
  1326 ;;      Params:         0       0       0       0       0
  1327 ;;      Locals:         0       0       0       0       0
  1328 ;;      Temps:          0       0       0       0       0
  1329 ;;      Totals:         0       0       0       0       0
  1330 ;;Total ram usage:        0 bytes
  1331 ;; Hardware stack levels used:    1
  1332 ;; Hardware stack levels required when called:    2
  1333 ;; This function calls:
  1334 ;;		_I2C_Master_Init
  1335 ;; This function is called by:
  1336 ;;		_main
  1337 ;; This function uses a non-reentrant model
  1338 ;;
  1339                           
  1340                           
  1341                           ;psect for function _Properties
  1342  0DF0                     _Properties:	
  1343  0DF0                     l1571:	
  1344                           ;incstack = 0
  1345                           ; Regs used in _Properties: [wreg+status,2+status,0+pclath+cstack]
  1346                           
  1347                           
  1348                           ;MASTALCD.c: 36:     ANSEL = 0;
  1349  0DF0  1683               	bsf	3,5	;RP0=1, select bank3
  1350  0DF1  1703               	bsf	3,6	;RP1=1, select bank3
  1351  0DF2  0188               	clrf	8	;volatile
  1352                           
  1353                           ;MASTALCD.c: 37:     ANSELH = 0;
  1354  0DF3  0189               	clrf	9	;volatile
  1355                           
  1356                           ;MASTALCD.c: 38:     TRISA = 0;
  1357  0DF4  1683               	bsf	3,5	;RP0=1, select bank1
  1358  0DF5  1303               	bcf	3,6	;RP1=0, select bank1
  1359  0DF6  0185               	clrf	5	;volatile
  1360  0DF7                     l1573:	
  1361                           
  1362                           ;MASTALCD.c: 39:     I2C_Master_Init(100000);
  1363  0DF7  3000               	movlw	0
  1364  0DF8  1283               	bcf	3,5	;RP0=0, select bank0
  1365  0DF9  1303               	bcf	3,6	;RP1=0, select bank0
  1366  0DFA  00A3               	movwf	I2C_Master_Init@c+3
  1367  0DFB  3001               	movlw	1
  1368  0DFC  00A2               	movwf	I2C_Master_Init@c+2
  1369  0DFD  3086               	movlw	134
  1370  0DFE  00A1               	movwf	I2C_Master_Init@c+1
  1371  0DFF  30A0               	movlw	160
  1372  0E00  00A0               	movwf	I2C_Master_Init@c
  1373  0E01  120A  158A  2709  120A  158A  	fcall	_I2C_Master_Init
  1374  0E06                     l39:	
  1375  0E06  0008               	return
  1376  0E07                     __end_of_Properties:	
  1377                           
  1378                           	psect	text3
  1379  0F09                     __ptext3:	
  1380 ;; *************** function _I2C_Master_Init *****************
  1381 ;; Defined at:
  1382 ;;		line 4 in file "I2C.c"
  1383 ;; Parameters:    Size  Location     Type
  1384 ;;  c               4    0[BANK0 ] const unsigned long 
  1385 ;; Auto vars:     Size  Location     Type
  1386 ;;		None
  1387 ;; Return value:  Size  Location     Type
  1388 ;;                  1    wreg      void 
  1389 ;; Registers used:
  1390 ;;		wreg, status,2, status,0, pclath, cstack
  1391 ;; Tracked objects:
  1392 ;;		On entry : 0/0
  1393 ;;		On exit  : 0/0
  1394 ;;		Unchanged: 0/0
  1395 ;; Data sizes:     COMMON   BANK0   BANK1   BANK3   BANK2
  1396 ;;      Params:         0       4       0       0       0
  1397 ;;      Locals:         0       0       0       0       0
  1398 ;;      Temps:          0       4       0       0       0
  1399 ;;      Totals:         0       8       0       0       0
  1400 ;;Total ram usage:        8 bytes
  1401 ;; Hardware stack levels used:    1
  1402 ;; Hardware stack levels required when called:    1
  1403 ;; This function calls:
  1404 ;;		___lldiv
  1405 ;; This function is called by:
  1406 ;;		_Properties
  1407 ;; This function uses a non-reentrant model
  1408 ;;
  1409                           
  1410                           
  1411                           ;psect for function _I2C_Master_Init
  1412  0F09                     _I2C_Master_Init:	
  1413  0F09                     l1453:	
  1414                           ;incstack = 0
  1415                           ; Regs used in _I2C_Master_Init: [wreg+status,2+status,0+pclath+cstack]
  1416                           
  1417                           
  1418                           ;I2C.c: 5:     SSPCON = 0b00101000;
  1419  0F09  3028               	movlw	40
  1420  0F0A  1283               	bcf	3,5	;RP0=0, select bank0
  1421  0F0B  1303               	bcf	3,6	;RP1=0, select bank0
  1422  0F0C  0094               	movwf	20	;volatile
  1423  0F0D                     l1455:	
  1424                           
  1425                           ;I2C.c: 6:     SSPCON2 = 0;
  1426  0F0D  1683               	bsf	3,5	;RP0=1, select bank1
  1427  0F0E  1303               	bcf	3,6	;RP1=0, select bank1
  1428  0F0F  0191               	clrf	17	;volatile
  1429  0F10                     l1457:	
  1430                           
  1431                           ;I2C.c: 7:     SSPADD = (8000000/(4*c))-1;
  1432  0F10  1283               	bcf	3,5	;RP0=0, select bank0
  1433  0F11  1303               	bcf	3,6	;RP1=0, select bank0
  1434  0F12  0820               	movf	I2C_Master_Init@c,w
  1435  0F13  00A4               	movwf	??_I2C_Master_Init
  1436  0F14  0821               	movf	I2C_Master_Init@c+1,w
  1437  0F15  00A5               	movwf	??_I2C_Master_Init+1
  1438  0F16  0822               	movf	I2C_Master_Init@c+2,w
  1439  0F17  00A6               	movwf	??_I2C_Master_Init+2
  1440  0F18  0823               	movf	I2C_Master_Init@c+3,w
  1441  0F19  00A7               	movwf	??_I2C_Master_Init+3
  1442  0F1A  3002               	movlw	2
  1443  0F1B                     u785:	
  1444  0F1B  1003               	clrc
  1445  0F1C  0DA4               	rlf	??_I2C_Master_Init,f
  1446  0F1D  0DA5               	rlf	??_I2C_Master_Init+1,f
  1447  0F1E  0DA6               	rlf	??_I2C_Master_Init+2,f
  1448  0F1F  0DA7               	rlf	??_I2C_Master_Init+3,f
  1449  0F20                     u780:	
  1450  0F20  3EFF               	addlw	-1
  1451  0F21  1D03               	skipz
  1452  0F22  2F1B               	goto	u785
  1453  0F23  0827               	movf	??_I2C_Master_Init+3,w
  1454  0F24  00F3               	movwf	___lldiv@divisor+3
  1455  0F25  0826               	movf	??_I2C_Master_Init+2,w
  1456  0F26  00F2               	movwf	___lldiv@divisor+2
  1457  0F27  0825               	movf	??_I2C_Master_Init+1,w
  1458  0F28  00F1               	movwf	___lldiv@divisor+1
  1459  0F29  0824               	movf	??_I2C_Master_Init,w
  1460  0F2A  00F0               	movwf	___lldiv@divisor
  1461  0F2B  3000               	movlw	0
  1462  0F2C  00F7               	movwf	___lldiv@dividend+3
  1463  0F2D  307A               	movlw	122
  1464  0F2E  00F6               	movwf	___lldiv@dividend+2
  1465  0F2F  3012               	movlw	18
  1466  0F30  00F5               	movwf	___lldiv@dividend+1
  1467  0F31  3000               	movlw	0
  1468  0F32  00F4               	movwf	___lldiv@dividend
  1469  0F33  120A  158A  279A  120A  158A  	fcall	___lldiv
  1470  0F38  0870               	movf	?___lldiv,w
  1471  0F39  3EFF               	addlw	255
  1472  0F3A  1683               	bsf	3,5	;RP0=1, select bank1
  1473  0F3B  1303               	bcf	3,6	;RP1=0, select bank1
  1474  0F3C  0093               	movwf	19	;volatile
  1475  0F3D                     l1459:	
  1476                           
  1477                           ;I2C.c: 8:     SSPSTAT = 0;
  1478  0F3D  0194               	clrf	20	;volatile
  1479  0F3E                     l1461:	
  1480                           
  1481                           ;I2C.c: 9:     TRISCbits.TRISC3 = 1;
  1482  0F3E  1587               	bsf	7,3	;volatile
  1483  0F3F                     l1463:	
  1484                           
  1485                           ;I2C.c: 10:     TRISCbits.TRISC4 = 1;
  1486  0F3F  1607               	bsf	7,4	;volatile
  1487  0F40                     l195:	
  1488  0F40  0008               	return
  1489  0F41                     __end_of_I2C_Master_Init:	
  1490                           
  1491                           	psect	text4
  1492  0F9A                     __ptext4:	
  1493 ;; *************** function ___lldiv *****************
  1494 ;; Defined at:
  1495 ;;		line 5 in file "C:\Program Files (x86)\Microchip\xc8\v2.10\pic\sources\c90\common\__lldiv.c"
  1496 ;; Parameters:    Size  Location     Type
  1497 ;;  divisor         4    0[COMMON] unsigned long 
  1498 ;;  dividend        4    4[COMMON] unsigned long 
  1499 ;; Auto vars:     Size  Location     Type
  1500 ;;  quotient        4    9[COMMON] unsigned long 
  1501 ;;  counter         1   13[COMMON] unsigned char 
  1502 ;; Return value:  Size  Location     Type
  1503 ;;                  4    0[COMMON] unsigned long 
  1504 ;; Registers used:
  1505 ;;		wreg, status,2, status,0
  1506 ;; Tracked objects:
  1507 ;;		On entry : 0/0
  1508 ;;		On exit  : 0/0
  1509 ;;		Unchanged: 0/0
  1510 ;; Data sizes:     COMMON   BANK0   BANK1   BANK3   BANK2
  1511 ;;      Params:         8       0       0       0       0
  1512 ;;      Locals:         5       0       0       0       0
  1513 ;;      Temps:          1       0       0       0       0
  1514 ;;      Totals:        14       0       0       0       0
  1515 ;;Total ram usage:       14 bytes
  1516 ;; Hardware stack levels used:    1
  1517 ;; This function calls:
  1518 ;;		Nothing
  1519 ;; This function is called by:
  1520 ;;		_I2C_Master_Init
  1521 ;; This function uses a non-reentrant model
  1522 ;;
  1523                           
  1524                           
  1525                           ;psect for function ___lldiv
  1526  0F9A                     ___lldiv:	
  1527  0F9A                     l1429:	
  1528                           ;incstack = 0
  1529                           ; Regs used in ___lldiv: [wreg+status,2+status,0]
  1530                           
  1531  0F9A  3000               	movlw	0
  1532  0F9B  00FC               	movwf	___lldiv@quotient+3
  1533  0F9C  3000               	movlw	0
  1534  0F9D  00FB               	movwf	___lldiv@quotient+2
  1535  0F9E  3000               	movlw	0
  1536  0F9F  00FA               	movwf	___lldiv@quotient+1
  1537  0FA0  3000               	movlw	0
  1538  0FA1  00F9               	movwf	___lldiv@quotient
  1539  0FA2  0873               	movf	___lldiv@divisor+3,w
  1540  0FA3  0472               	iorwf	___lldiv@divisor+2,w
  1541  0FA4  0471               	iorwf	___lldiv@divisor+1,w
  1542  0FA5  0470               	iorwf	___lldiv@divisor,w
  1543  0FA6  1903               	skipnz
  1544  0FA7  2FA9               	goto	u711
  1545  0FA8  2FAA               	goto	u710
  1546  0FA9                     u711:	
  1547  0FA9  2FF7               	goto	l1449
  1548  0FAA                     u710:	
  1549  0FAA                     l1431:	
  1550  0FAA  01FD               	clrf	___lldiv@counter
  1551  0FAB  0AFD               	incf	___lldiv@counter,f
  1552  0FAC  2FBA               	goto	l1435
  1553  0FAD                     l1433:	
  1554  0FAD  3001               	movlw	1
  1555  0FAE  00F8               	movwf	??___lldiv
  1556  0FAF                     u725:	
  1557  0FAF  1003               	clrc
  1558  0FB0  0DF0               	rlf	___lldiv@divisor,f
  1559  0FB1  0DF1               	rlf	___lldiv@divisor+1,f
  1560  0FB2  0DF2               	rlf	___lldiv@divisor+2,f
  1561  0FB3  0DF3               	rlf	___lldiv@divisor+3,f
  1562  0FB4  0BF8               	decfsz	??___lldiv,f
  1563  0FB5  2FAF               	goto	u725
  1564  0FB6  3001               	movlw	1
  1565  0FB7  00F8               	movwf	??___lldiv
  1566  0FB8  0878               	movf	??___lldiv,w
  1567  0FB9  07FD               	addwf	___lldiv@counter,f
  1568  0FBA                     l1435:	
  1569  0FBA  1FF3               	btfss	___lldiv@divisor+3,7
  1570  0FBB  2FBD               	goto	u731
  1571  0FBC  2FBE               	goto	u730
  1572  0FBD                     u731:	
  1573  0FBD  2FAD               	goto	l1433
  1574  0FBE                     u730:	
  1575  0FBE                     l1437:	
  1576  0FBE  3001               	movlw	1
  1577  0FBF  00F8               	movwf	??___lldiv
  1578  0FC0                     u745:	
  1579  0FC0  1003               	clrc
  1580  0FC1  0DF9               	rlf	___lldiv@quotient,f
  1581  0FC2  0DFA               	rlf	___lldiv@quotient+1,f
  1582  0FC3  0DFB               	rlf	___lldiv@quotient+2,f
  1583  0FC4  0DFC               	rlf	___lldiv@quotient+3,f
  1584  0FC5  0BF8               	decfsz	??___lldiv,f
  1585  0FC6  2FC0               	goto	u745
  1586  0FC7                     l1439:	
  1587  0FC7  0873               	movf	___lldiv@divisor+3,w
  1588  0FC8  0277               	subwf	___lldiv@dividend+3,w
  1589  0FC9  1D03               	skipz
  1590  0FCA  2FD5               	goto	u755
  1591  0FCB  0872               	movf	___lldiv@divisor+2,w
  1592  0FCC  0276               	subwf	___lldiv@dividend+2,w
  1593  0FCD  1D03               	skipz
  1594  0FCE  2FD5               	goto	u755
  1595  0FCF  0871               	movf	___lldiv@divisor+1,w
  1596  0FD0  0275               	subwf	___lldiv@dividend+1,w
  1597  0FD1  1D03               	skipz
  1598  0FD2  2FD5               	goto	u755
  1599  0FD3  0870               	movf	___lldiv@divisor,w
  1600  0FD4  0274               	subwf	___lldiv@dividend,w
  1601  0FD5                     u755:	
  1602  0FD5  1C03               	skipc
  1603  0FD6  2FD8               	goto	u751
  1604  0FD7  2FD9               	goto	u750
  1605  0FD8                     u751:	
  1606  0FD8  2FE8               	goto	l1445
  1607  0FD9                     u750:	
  1608  0FD9                     l1441:	
  1609  0FD9  0870               	movf	___lldiv@divisor,w
  1610  0FDA  02F4               	subwf	___lldiv@dividend,f
  1611  0FDB  0871               	movf	___lldiv@divisor+1,w
  1612  0FDC  1C03               	skipc
  1613  0FDD  0F71               	incfsz	___lldiv@divisor+1,w
  1614  0FDE  02F5               	subwf	___lldiv@dividend+1,f
  1615  0FDF  0872               	movf	___lldiv@divisor+2,w
  1616  0FE0  1C03               	skipc
  1617  0FE1  0F72               	incfsz	___lldiv@divisor+2,w
  1618  0FE2  02F6               	subwf	___lldiv@dividend+2,f
  1619  0FE3  0873               	movf	___lldiv@divisor+3,w
  1620  0FE4  1C03               	skipc
  1621  0FE5  0F73               	incfsz	___lldiv@divisor+3,w
  1622  0FE6  02F7               	subwf	___lldiv@dividend+3,f
  1623  0FE7                     l1443:	
  1624  0FE7  1479               	bsf	___lldiv@quotient,0
  1625  0FE8                     l1445:	
  1626  0FE8  3001               	movlw	1
  1627  0FE9                     u765:	
  1628  0FE9  1003               	clrc
  1629  0FEA  0CF3               	rrf	___lldiv@divisor+3,f
  1630  0FEB  0CF2               	rrf	___lldiv@divisor+2,f
  1631  0FEC  0CF1               	rrf	___lldiv@divisor+1,f
  1632  0FED  0CF0               	rrf	___lldiv@divisor,f
  1633  0FEE  3EFF               	addlw	-1
  1634  0FEF  1D03               	skipz
  1635  0FF0  2FE9               	goto	u765
  1636  0FF1                     l1447:	
  1637  0FF1  3001               	movlw	1
  1638  0FF2  02FD               	subwf	___lldiv@counter,f
  1639  0FF3  1D03               	btfss	3,2
  1640  0FF4  2FF6               	goto	u771
  1641  0FF5  2FF7               	goto	u770
  1642  0FF6                     u771:	
  1643  0FF6  2FBE               	goto	l1437
  1644  0FF7                     u770:	
  1645  0FF7                     l1449:	
  1646  0FF7  087C               	movf	___lldiv@quotient+3,w
  1647  0FF8  00F3               	movwf	?___lldiv+3
  1648  0FF9  087B               	movf	___lldiv@quotient+2,w
  1649  0FFA  00F2               	movwf	?___lldiv+2
  1650  0FFB  087A               	movf	___lldiv@quotient+1,w
  1651  0FFC  00F1               	movwf	?___lldiv+1
  1652  0FFD  0879               	movf	___lldiv@quotient,w
  1653  0FFE  00F0               	movwf	?___lldiv
  1654  0FFF                     l343:	
  1655  0FFF  0008               	return
  1656  1000                     __end_of___lldiv:	
  1657                           
  1658                           	psect	text5
  1659  03A2                     __ptext5:	
  1660 ;; *************** function _POTENCIOMETRO *****************
  1661 ;; Defined at:
  1662 ;;		line 150 in file "LibreriaLCD.c"
  1663 ;; Parameters:    Size  Location     Type
  1664 ;;  result          1    wreg     unsigned char 
  1665 ;; Auto vars:     Size  Location     Type
  1666 ;;  result          1   22[BANK0 ] unsigned char 
  1667 ;;  i               2   20[BANK0 ] int 
  1668 ;;  numero          6    9[BANK0 ] int [3]
  1669 ;;  coordenada      1   24[BANK0 ] unsigned char 
  1670 ;;  valor           1   23[BANK0 ] unsigned char 
  1671 ;;  centesimas      1   17[BANK0 ] unsigned char 
  1672 ;;  decimas         1   16[BANK0 ] unsigned char 
  1673 ;;  unidades        1   15[BANK0 ] unsigned char 
  1674 ;; Return value:  Size  Location     Type
  1675 ;;                  1    wreg      void 
  1676 ;; Registers used:
  1677 ;;		wreg, fsr0l, fsr0h, status,2, status,0, btemp+1, pclath, cstack
  1678 ;; Tracked objects:
  1679 ;;		On entry : 0/0
  1680 ;;		On exit  : 0/0
  1681 ;;		Unchanged: 0/0
  1682 ;; Data sizes:     COMMON   BANK0   BANK1   BANK3   BANK2
  1683 ;;      Params:         0       0       0       0       0
  1684 ;;      Locals:         0      16       0       0       0
  1685 ;;      Temps:          0       5       0       0       0
  1686 ;;      Totals:         0      21       0       0       0
  1687 ;;Total ram usage:       21 bytes
  1688 ;; Hardware stack levels used:    1
  1689 ;; Hardware stack levels required when called:    5
  1690 ;; This function calls:
  1691 ;;		___awdiv
  1692 ;;		___awmod
  1693 ;;		_lcddirection
  1694 ;; This function is called by:
  1695 ;;		_main
  1696 ;; This function uses a non-reentrant model
  1697 ;;
  1698                           
  1699                           
  1700                           ;psect for function _POTENCIOMETRO
  1701  03A2                     _POTENCIOMETRO:	
  1702                           
  1703                           ;incstack = 0
  1704                           ; Regs used in _POTENCIOMETRO: [wreg-fsr0h+status,2+status,0+btemp+1+pclath+cstack]
  1705                           ;POTENCIOMETRO@result stored from wreg
  1706  03A2  1283               	bcf	3,5	;RP0=0, select bank0
  1707  03A3  1303               	bcf	3,6	;RP1=0, select bank0
  1708  03A4  00B6               	movwf	POTENCIOMETRO@result
  1709  03A5                     l1667:	
  1710                           
  1711                           ;LibreriaLCD.c: 151:     if (result>=250){result = 250;}
  1712  03A5  30FA               	movlw	250
  1713  03A6  0236               	subwf	POTENCIOMETRO@result,w
  1714  03A7  1C03               	skipc
  1715  03A8  2BAA               	goto	u1011
  1716  03A9  2BAB               	goto	u1010
  1717  03AA                     u1011:	
  1718  03AA  2BAF               	goto	l1671
  1719  03AB                     u1010:	
  1720  03AB                     l1669:	
  1721  03AB  30FA               	movlw	250
  1722  03AC  00A4               	movwf	??_POTENCIOMETRO
  1723  03AD  0824               	movf	??_POTENCIOMETRO,w
  1724  03AE  00B6               	movwf	POTENCIOMETRO@result
  1725  03AF                     l1671:	
  1726  03AF                     l1673:	
  1727                           
  1728                           ;LibreriaLCD.c: 153:     uint8_t coordenada = 0;
  1729  03AF  01B8               	clrf	POTENCIOMETRO@coordenada
  1730  03B0                     l1675:	
  1731                           
  1732                           ;LibreriaLCD.c: 154:     uint8_t unidades = (result - (result % 50))/50;
  1733  03B0  3032               	movlw	50
  1734  03B1  00F7               	movwf	___awdiv@divisor
  1735  03B2  3000               	movlw	0
  1736  03B3  00F8               	movwf	___awdiv@divisor+1
  1737  03B4  3032               	movlw	50
  1738  03B5  00F0               	movwf	___awmod@divisor
  1739  03B6  3000               	movlw	0
  1740  03B7  00F1               	movwf	___awmod@divisor+1
  1741  03B8  0836               	movf	POTENCIOMETRO@result,w
  1742  03B9  00A4               	movwf	??_POTENCIOMETRO
  1743  03BA  01A5               	clrf	??_POTENCIOMETRO+1
  1744  03BB  0824               	movf	??_POTENCIOMETRO,w
  1745  03BC  00F2               	movwf	___awmod@dividend
  1746  03BD  0825               	movf	??_POTENCIOMETRO+1,w
  1747  03BE  00F3               	movwf	___awmod@dividend+1
  1748  03BF  120A  158A  2741  120A  118A  	fcall	___awmod
  1749  03C4  1283               	bcf	3,5	;RP0=0, select bank0
  1750  03C5  1303               	bcf	3,6	;RP1=0, select bank0
  1751  03C6  0836               	movf	POTENCIOMETRO@result,w
  1752  03C7  00A6               	movwf	??_POTENCIOMETRO+2
  1753  03C8  0870               	movf	?___awmod,w
  1754  03C9  0226               	subwf	??_POTENCIOMETRO+2,w
  1755  03CA  00F9               	movwf	___awdiv@dividend
  1756  03CB  0971               	comf	?___awmod+1,w
  1757  03CC  1803               	skipnc
  1758  03CD  3E01               	addlw	1
  1759  03CE  00FA               	movwf	___awdiv@dividend+1
  1760  03CF  120A  118A  209C  120A  118A  	fcall	___awdiv
  1761  03D4  0877               	movf	?___awdiv,w
  1762  03D5  1283               	bcf	3,5	;RP0=0, select bank0
  1763  03D6  1303               	bcf	3,6	;RP1=0, select bank0
  1764  03D7  00A7               	movwf	??_POTENCIOMETRO+3
  1765  03D8  0827               	movf	??_POTENCIOMETRO+3,w
  1766  03D9  00AF               	movwf	POTENCIOMETRO@unidades
  1767  03DA                     l1677:	
  1768                           
  1769                           ;LibreriaLCD.c: 155:     uint8_t decimas = ((result %50) -((result %50)%5))/5;
  1770  03DA  0836               	movf	POTENCIOMETRO@result,w
  1771  03DB  00A4               	movwf	??_POTENCIOMETRO
  1772  03DC  01A5               	clrf	??_POTENCIOMETRO+1
  1773  03DD  0824               	movf	??_POTENCIOMETRO,w
  1774  03DE  00F2               	movwf	___awmod@dividend
  1775  03DF  0825               	movf	??_POTENCIOMETRO+1,w
  1776  03E0  00F3               	movwf	___awmod@dividend+1
  1777  03E1  3032               	movlw	50
  1778  03E2  00F0               	movwf	___awmod@divisor
  1779  03E3  3000               	movlw	0
  1780  03E4  00F1               	movwf	___awmod@divisor+1
  1781  03E5  120A  158A  2741  120A  118A  	fcall	___awmod
  1782  03EA  0871               	movf	?___awmod+1,w
  1783  03EB  1283               	bcf	3,5	;RP0=0, select bank0
  1784  03EC  1303               	bcf	3,6	;RP1=0, select bank0
  1785  03ED  00B3               	movwf	_POTENCIOMETRO$951+1
  1786  03EE  0870               	movf	?___awmod,w
  1787  03EF  00B2               	movwf	_POTENCIOMETRO$951
  1788  03F0                     l1679:	
  1789                           
  1790                           ;LibreriaLCD.c: 155:     uint8_t decimas = ((result %50) -((result %50)%5))/5;
  1791  03F0  3005               	movlw	5
  1792  03F1  00F7               	movwf	___awdiv@divisor
  1793  03F2  3000               	movlw	0
  1794  03F3  00F8               	movwf	___awdiv@divisor+1
  1795  03F4  3032               	movlw	50
  1796  03F5  00F0               	movwf	___awmod@divisor
  1797  03F6  3000               	movlw	0
  1798  03F7  00F1               	movwf	___awmod@divisor+1
  1799  03F8  0836               	movf	POTENCIOMETRO@result,w
  1800  03F9  00A4               	movwf	??_POTENCIOMETRO
  1801  03FA  01A5               	clrf	??_POTENCIOMETRO+1
  1802  03FB  0824               	movf	??_POTENCIOMETRO,w
  1803  03FC  00F2               	movwf	___awmod@dividend
  1804  03FD  0825               	movf	??_POTENCIOMETRO+1,w
  1805  03FE  00F3               	movwf	___awmod@dividend+1
  1806  03FF  120A  158A  2741  120A  118A  	fcall	___awmod
  1807  0404  0870               	movf	?___awmod,w
  1808  0405  1283               	bcf	3,5	;RP0=0, select bank0
  1809  0406  1303               	bcf	3,6	;RP1=0, select bank0
  1810  0407  00A6               	movwf	??_POTENCIOMETRO+2
  1811  0408  0871               	movf	?___awmod+1,w
  1812  0409  00A7               	movwf	??_POTENCIOMETRO+3
  1813  040A  3005               	movlw	5
  1814  040B  00F0               	movwf	___awmod@divisor
  1815  040C  3000               	movlw	0
  1816  040D  00F1               	movwf	___awmod@divisor+1
  1817  040E  0833               	movf	_POTENCIOMETRO$951+1,w
  1818  040F  00F3               	movwf	___awmod@dividend+1
  1819  0410  0832               	movf	_POTENCIOMETRO$951,w
  1820  0411  00F2               	movwf	___awmod@dividend
  1821  0412  120A  158A  2741  120A  118A  	fcall	___awmod
  1822  0417  0870               	movf	?___awmod,w
  1823  0418  1283               	bcf	3,5	;RP0=0, select bank0
  1824  0419  1303               	bcf	3,6	;RP1=0, select bank0
  1825  041A  0226               	subwf	??_POTENCIOMETRO+2,w
  1826  041B  00F9               	movwf	___awdiv@dividend
  1827  041C  0871               	movf	?___awmod+1,w
  1828  041D  1C03               	skipc
  1829  041E  0A71               	incf	?___awmod+1,w
  1830  041F  0227               	subwf	??_POTENCIOMETRO+3,w
  1831  0420  00FA               	movwf	___awdiv@dividend+1
  1832  0421  120A  118A  209C  120A  118A  	fcall	___awdiv
  1833  0426  0877               	movf	?___awdiv,w
  1834  0427  1283               	bcf	3,5	;RP0=0, select bank0
  1835  0428  1303               	bcf	3,6	;RP1=0, select bank0
  1836  0429  00A8               	movwf	??_POTENCIOMETRO+4
  1837  042A  0828               	movf	??_POTENCIOMETRO+4,w
  1838  042B  00B0               	movwf	POTENCIOMETRO@decimas
  1839  042C                     l1681:	
  1840                           
  1841                           ;LibreriaLCD.c: 156:     uint8_t centesimas = (((result %50)%5) -(((result %50)%5)%1))*2
      +                          ;
  1842  042C  0836               	movf	POTENCIOMETRO@result,w
  1843  042D  00A4               	movwf	??_POTENCIOMETRO
  1844  042E  01A5               	clrf	??_POTENCIOMETRO+1
  1845  042F  0824               	movf	??_POTENCIOMETRO,w
  1846  0430  00F2               	movwf	___awmod@dividend
  1847  0431  0825               	movf	??_POTENCIOMETRO+1,w
  1848  0432  00F3               	movwf	___awmod@dividend+1
  1849  0433  3032               	movlw	50
  1850  0434  00F0               	movwf	___awmod@divisor
  1851  0435  3000               	movlw	0
  1852  0436  00F1               	movwf	___awmod@divisor+1
  1853  0437  120A  158A  2741  120A  118A  	fcall	___awmod
  1854  043C  0871               	movf	?___awmod+1,w
  1855  043D  1283               	bcf	3,5	;RP0=0, select bank0
  1856  043E  1303               	bcf	3,6	;RP1=0, select bank0
  1857  043F  00B3               	movwf	_POTENCIOMETRO$951+1
  1858  0440  0870               	movf	?___awmod,w
  1859  0441  00B2               	movwf	_POTENCIOMETRO$951
  1860  0442                     l1683:	
  1861                           
  1862                           ;LibreriaLCD.c: 156:     uint8_t centesimas = (((result %50)%5) -(((result %50)%5)%1))*2
      +                          ;
  1863  0442  3005               	movlw	5
  1864  0443  00F0               	movwf	___awmod@divisor
  1865  0444  3000               	movlw	0
  1866  0445  00F1               	movwf	___awmod@divisor+1
  1867  0446  0833               	movf	_POTENCIOMETRO$951+1,w
  1868  0447  00F3               	movwf	___awmod@dividend+1
  1869  0448  0832               	movf	_POTENCIOMETRO$951,w
  1870  0449  00F2               	movwf	___awmod@dividend
  1871  044A  120A  158A  2741  120A  118A  	fcall	___awmod
  1872  044F  0870               	movf	?___awmod,w
  1873  0450  1283               	bcf	3,5	;RP0=0, select bank0
  1874  0451  1303               	bcf	3,6	;RP1=0, select bank0
  1875  0452  00A4               	movwf	??_POTENCIOMETRO
  1876  0453  0724               	addwf	??_POTENCIOMETRO,w
  1877  0454  00A5               	movwf	??_POTENCIOMETRO+1
  1878  0455  0825               	movf	??_POTENCIOMETRO+1,w
  1879  0456  00B1               	movwf	POTENCIOMETRO@centesimas
  1880  0457                     l1685:	
  1881                           
  1882                           ;LibreriaLCD.c: 157:     int numero[] = {unidades,decimas,centesimas};
  1883  0457  3029               	movlw	POTENCIOMETRO@numero& (0+255)
  1884  0458  0084               	movwf	4
  1885  0459  3006               	movlw	6
  1886  045A  00FF               	movwf	btemp+1
  1887  045B                     u1020:	
  1888  045B  1383               	bcf	3,7	;select IRP bank0
  1889  045C  0180               	clrf	0
  1890  045D  0A84               	incf	4,f
  1891  045E  0BFF               	decfsz	btemp+1,f
  1892  045F  2C5B               	goto	u1020
  1893  0460                     l1687:	
  1894  0460  082F               	movf	POTENCIOMETRO@unidades,w
  1895  0461  00A4               	movwf	??_POTENCIOMETRO
  1896  0462  01A5               	clrf	??_POTENCIOMETRO+1
  1897  0463  0824               	movf	??_POTENCIOMETRO,w
  1898  0464  00A9               	movwf	POTENCIOMETRO@numero
  1899  0465  0825               	movf	??_POTENCIOMETRO+1,w
  1900  0466  00AA               	movwf	POTENCIOMETRO@numero+1
  1901  0467                     l1689:	
  1902  0467  0830               	movf	POTENCIOMETRO@decimas,w
  1903  0468  00A4               	movwf	??_POTENCIOMETRO
  1904  0469  01A5               	clrf	??_POTENCIOMETRO+1
  1905  046A  0824               	movf	??_POTENCIOMETRO,w
  1906  046B  00AB               	movwf	POTENCIOMETRO@numero+2
  1907  046C  0825               	movf	??_POTENCIOMETRO+1,w
  1908  046D  00AC               	movwf	POTENCIOMETRO@numero+3
  1909  046E                     l1691:	
  1910  046E  0831               	movf	POTENCIOMETRO@centesimas,w
  1911  046F  00A4               	movwf	??_POTENCIOMETRO
  1912  0470  01A5               	clrf	??_POTENCIOMETRO+1
  1913  0471  0824               	movf	??_POTENCIOMETRO,w
  1914  0472  00AD               	movwf	POTENCIOMETRO@numero+4
  1915  0473  0825               	movf	??_POTENCIOMETRO+1,w
  1916  0474  00AE               	movwf	POTENCIOMETRO@numero+5
  1917  0475                     l1693:	
  1918                           
  1919                           ;LibreriaLCD.c: 158:     for (int i=0; i<3;i++){
  1920  0475  01B4               	clrf	POTENCIOMETRO@i
  1921  0476  01B5               	clrf	POTENCIOMETRO@i+1
  1922  0477                     l1699:	
  1923                           
  1924                           ;LibreriaLCD.c: 159:         valor = numero[i];
  1925  0477  1283               	bcf	3,5	;RP0=0, select bank0
  1926  0478  1303               	bcf	3,6	;RP1=0, select bank0
  1927  0479  0834               	movf	POTENCIOMETRO@i,w
  1928  047A  00A4               	movwf	??_POTENCIOMETRO
  1929  047B  0724               	addwf	??_POTENCIOMETRO,w
  1930  047C  3E29               	addlw	(low (POTENCIOMETRO@numero| 0))& (0+255)
  1931  047D  0084               	movwf	4
  1932  047E  1383               	bcf	3,7	;select IRP bank0
  1933  047F  0800               	movf	0,w
  1934  0480  00A5               	movwf	??_POTENCIOMETRO+1
  1935  0481  0825               	movf	??_POTENCIOMETRO+1,w
  1936  0482  00B7               	movwf	POTENCIOMETRO@valor
  1937  0483                     l1701:	
  1938                           
  1939                           ;LibreriaLCD.c: 160:         if (i == 0) {
  1940  0483  0834               	movf	POTENCIOMETRO@i,w
  1941  0484  0435               	iorwf	POTENCIOMETRO@i+1,w
  1942  0485  1D03               	btfss	3,2
  1943  0486  2C88               	goto	u1031
  1944  0487  2C89               	goto	u1030
  1945  0488                     u1031:	
  1946  0488  2C8A               	goto	l1705
  1947  0489                     u1030:	
  1948  0489                     l1703:	
  1949                           
  1950                           ;LibreriaLCD.c: 161:             coordenada = 0;
  1951  0489  01B8               	clrf	POTENCIOMETRO@coordenada
  1952  048A                     l1705:	
  1953                           
  1954                           ;LibreriaLCD.c: 163:         if (i == 1) {
  1955  048A  0334               	decf	POTENCIOMETRO@i,w
  1956  048B  0435               	iorwf	POTENCIOMETRO@i+1,w
  1957  048C  1D03               	btfss	3,2
  1958  048D  2C8F               	goto	u1041
  1959  048E  2C90               	goto	u1040
  1960  048F                     u1041:	
  1961  048F  2C94               	goto	l1709
  1962  0490                     u1040:	
  1963  0490                     l1707:	
  1964                           
  1965                           ;LibreriaLCD.c: 164:             coordenada = 2;
  1966  0490  3002               	movlw	2
  1967  0491  00A4               	movwf	??_POTENCIOMETRO
  1968  0492  0824               	movf	??_POTENCIOMETRO,w
  1969  0493  00B8               	movwf	POTENCIOMETRO@coordenada
  1970  0494                     l1709:	
  1971                           
  1972                           ;LibreriaLCD.c: 166:         if (i == 2) {
  1973  0494  3002               	movlw	2
  1974  0495  0634               	xorwf	POTENCIOMETRO@i,w
  1975  0496  0435               	iorwf	POTENCIOMETRO@i+1,w
  1976  0497  1D03               	btfss	3,2
  1977  0498  2C9A               	goto	u1051
  1978  0499  2C9B               	goto	u1050
  1979  049A                     u1051:	
  1980  049A  2C9F               	goto	l1713
  1981  049B                     u1050:	
  1982  049B                     l1711:	
  1983                           
  1984                           ;LibreriaLCD.c: 167:             coordenada = 3;
  1985  049B  3003               	movlw	3
  1986  049C  00A4               	movwf	??_POTENCIOMETRO
  1987  049D  0824               	movf	??_POTENCIOMETRO,w
  1988  049E  00B8               	movwf	POTENCIOMETRO@coordenada
  1989  049F                     l1713:	
  1990                           
  1991                           ;LibreriaLCD.c: 169:         if (valor == 0){
  1992  049F  0837               	movf	POTENCIOMETRO@valor,w
  1993  04A0  1D03               	btfss	3,2
  1994  04A1  2CA3               	goto	u1061
  1995  04A2  2CA4               	goto	u1060
  1996  04A3                     u1061:	
  1997  04A3  2CB8               	goto	l1717
  1998  04A4                     u1060:	
  1999  04A4                     l1715:	
  2000                           
  2001                           ;LibreriaLCD.c: 170:             lcddirection(coordenada,2,"0");
  2002  04A4  0838               	movf	POTENCIOMETRO@coordenada,w
  2003  04A5  00A4               	movwf	??_POTENCIOMETRO
  2004  04A6  01A5               	clrf	??_POTENCIOMETRO+1
  2005  04A7  0824               	movf	??_POTENCIOMETRO,w
  2006  04A8  00F8               	movwf	lcddirection@x
  2007  04A9  0825               	movf	??_POTENCIOMETRO+1,w
  2008  04AA  00F9               	movwf	lcddirection@x+1
  2009  04AB  3002               	movlw	2
  2010  04AC  00FA               	movwf	lcddirection@y
  2011  04AD  3000               	movlw	0
  2012  04AE  00FB               	movwf	lcddirection@y+1
  2013  04AF  3050               	movlw	(low (((STR_7+1)-__stringbase)| (0+32768)))& (0+255)
  2014  04B0  00A6               	movwf	??_POTENCIOMETRO+2
  2015  04B1  0826               	movf	??_POTENCIOMETRO+2,w
  2016  04B2  00FC               	movwf	lcddirection@valor
  2017  04B3  120A  158A  2657  120A  118A  	fcall	_lcddirection
  2018  04B8                     l1717:	
  2019                           
  2020                           ;LibreriaLCD.c: 172:         if (valor == 1){
  2021  04B8  1283               	bcf	3,5	;RP0=0, select bank0
  2022  04B9  1303               	bcf	3,6	;RP1=0, select bank0
  2023  04BA  0337               	decf	POTENCIOMETRO@valor,w
  2024  04BB  1D03               	btfss	3,2
  2025  04BC  2CBE               	goto	u1071
  2026  04BD  2CBF               	goto	u1070
  2027  04BE                     u1071:	
  2028  04BE  2CD3               	goto	l1721
  2029  04BF                     u1070:	
  2030  04BF                     l1719:	
  2031                           
  2032                           ;LibreriaLCD.c: 173:             lcddirection(coordenada,2,"1");
  2033  04BF  0838               	movf	POTENCIOMETRO@coordenada,w
  2034  04C0  00A4               	movwf	??_POTENCIOMETRO
  2035  04C1  01A5               	clrf	??_POTENCIOMETRO+1
  2036  04C2  0824               	movf	??_POTENCIOMETRO,w
  2037  04C3  00F8               	movwf	lcddirection@x
  2038  04C4  0825               	movf	??_POTENCIOMETRO+1,w
  2039  04C5  00F9               	movwf	lcddirection@x+1
  2040  04C6  3002               	movlw	2
  2041  04C7  00FA               	movwf	lcddirection@y
  2042  04C8  3000               	movlw	0
  2043  04C9  00FB               	movwf	lcddirection@y+1
  2044  04CA  3056               	movlw	(low (((STR_8+1)-__stringbase)| (0+32768)))& (0+255)
  2045  04CB  00A6               	movwf	??_POTENCIOMETRO+2
  2046  04CC  0826               	movf	??_POTENCIOMETRO+2,w
  2047  04CD  00FC               	movwf	lcddirection@valor
  2048  04CE  120A  158A  2657  120A  118A  	fcall	_lcddirection
  2049  04D3                     l1721:	
  2050                           
  2051                           ;LibreriaLCD.c: 175:         if (valor == 2){
  2052  04D3  3002               	movlw	2
  2053  04D4  1283               	bcf	3,5	;RP0=0, select bank0
  2054  04D5  1303               	bcf	3,6	;RP1=0, select bank0
  2055  04D6  0637               	xorwf	POTENCIOMETRO@valor,w
  2056  04D7  1D03               	btfss	3,2
  2057  04D8  2CDA               	goto	u1081
  2058  04D9  2CDB               	goto	u1080
  2059  04DA                     u1081:	
  2060  04DA  2CEF               	goto	l1725
  2061  04DB                     u1080:	
  2062  04DB                     l1723:	
  2063                           
  2064                           ;LibreriaLCD.c: 176:             lcddirection(coordenada,2,"2");
  2065  04DB  0838               	movf	POTENCIOMETRO@coordenada,w
  2066  04DC  00A4               	movwf	??_POTENCIOMETRO
  2067  04DD  01A5               	clrf	??_POTENCIOMETRO+1
  2068  04DE  0824               	movf	??_POTENCIOMETRO,w
  2069  04DF  00F8               	movwf	lcddirection@x
  2070  04E0  0825               	movf	??_POTENCIOMETRO+1,w
  2071  04E1  00F9               	movwf	lcddirection@x+1
  2072  04E2  3002               	movlw	2
  2073  04E3  00FA               	movwf	lcddirection@y
  2074  04E4  3000               	movlw	0
  2075  04E5  00FB               	movwf	lcddirection@y+1
  2076  04E6  305C               	movlw	(low (((STR_9+1)-__stringbase)| (0+32768)))& (0+255)
  2077  04E7  00A6               	movwf	??_POTENCIOMETRO+2
  2078  04E8  0826               	movf	??_POTENCIOMETRO+2,w
  2079  04E9  00FC               	movwf	lcddirection@valor
  2080  04EA  120A  158A  2657  120A  118A  	fcall	_lcddirection
  2081  04EF                     l1725:	
  2082                           
  2083                           ;LibreriaLCD.c: 178:         if (valor == 3){
  2084  04EF  3003               	movlw	3
  2085  04F0  1283               	bcf	3,5	;RP0=0, select bank0
  2086  04F1  1303               	bcf	3,6	;RP1=0, select bank0
  2087  04F2  0637               	xorwf	POTENCIOMETRO@valor,w
  2088  04F3  1D03               	btfss	3,2
  2089  04F4  2CF6               	goto	u1091
  2090  04F5  2CF7               	goto	u1090
  2091  04F6                     u1091:	
  2092  04F6  2D0B               	goto	l1729
  2093  04F7                     u1090:	
  2094  04F7                     l1727:	
  2095                           
  2096                           ;LibreriaLCD.c: 179:             lcddirection(coordenada,2,"3");
  2097  04F7  0838               	movf	POTENCIOMETRO@coordenada,w
  2098  04F8  00A4               	movwf	??_POTENCIOMETRO
  2099  04F9  01A5               	clrf	??_POTENCIOMETRO+1
  2100  04FA  0824               	movf	??_POTENCIOMETRO,w
  2101  04FB  00F8               	movwf	lcddirection@x
  2102  04FC  0825               	movf	??_POTENCIOMETRO+1,w
  2103  04FD  00F9               	movwf	lcddirection@x+1
  2104  04FE  3002               	movlw	2
  2105  04FF  00FA               	movwf	lcddirection@y
  2106  0500  3000               	movlw	0
  2107  0501  00FB               	movwf	lcddirection@y+1
  2108  0502  3062               	movlw	(low (((STR_10+1)-__stringbase)| (0+32768)))& (0+255)
  2109  0503  00A6               	movwf	??_POTENCIOMETRO+2
  2110  0504  0826               	movf	??_POTENCIOMETRO+2,w
  2111  0505  00FC               	movwf	lcddirection@valor
  2112  0506  120A  158A  2657  120A  118A  	fcall	_lcddirection
  2113  050B                     l1729:	
  2114                           
  2115                           ;LibreriaLCD.c: 181:         if (valor == 4){
  2116  050B  3004               	movlw	4
  2117  050C  1283               	bcf	3,5	;RP0=0, select bank0
  2118  050D  1303               	bcf	3,6	;RP1=0, select bank0
  2119  050E  0637               	xorwf	POTENCIOMETRO@valor,w
  2120  050F  1D03               	btfss	3,2
  2121  0510  2D12               	goto	u1101
  2122  0511  2D13               	goto	u1100
  2123  0512                     u1101:	
  2124  0512  2D27               	goto	l1733
  2125  0513                     u1100:	
  2126  0513                     l1731:	
  2127                           
  2128                           ;LibreriaLCD.c: 182:             lcddirection(coordenada,2,"4");
  2129  0513  0838               	movf	POTENCIOMETRO@coordenada,w
  2130  0514  00A4               	movwf	??_POTENCIOMETRO
  2131  0515  01A5               	clrf	??_POTENCIOMETRO+1
  2132  0516  0824               	movf	??_POTENCIOMETRO,w
  2133  0517  00F8               	movwf	lcddirection@x
  2134  0518  0825               	movf	??_POTENCIOMETRO+1,w
  2135  0519  00F9               	movwf	lcddirection@x+1
  2136  051A  3002               	movlw	2
  2137  051B  00FA               	movwf	lcddirection@y
  2138  051C  3000               	movlw	0
  2139  051D  00FB               	movwf	lcddirection@y+1
  2140  051E  3068               	movlw	(low (((STR_11+1)-__stringbase)| (0+32768)))& (0+255)
  2141  051F  00A6               	movwf	??_POTENCIOMETRO+2
  2142  0520  0826               	movf	??_POTENCIOMETRO+2,w
  2143  0521  00FC               	movwf	lcddirection@valor
  2144  0522  120A  158A  2657  120A  118A  	fcall	_lcddirection
  2145  0527                     l1733:	
  2146                           
  2147                           ;LibreriaLCD.c: 184:         if (valor == 5){
  2148  0527  3005               	movlw	5
  2149  0528  1283               	bcf	3,5	;RP0=0, select bank0
  2150  0529  1303               	bcf	3,6	;RP1=0, select bank0
  2151  052A  0637               	xorwf	POTENCIOMETRO@valor,w
  2152  052B  1D03               	btfss	3,2
  2153  052C  2D2E               	goto	u1111
  2154  052D  2D2F               	goto	u1110
  2155  052E                     u1111:	
  2156  052E  2D43               	goto	l1737
  2157  052F                     u1110:	
  2158  052F                     l1735:	
  2159                           
  2160                           ;LibreriaLCD.c: 185:             lcddirection(coordenada,2,"5");
  2161  052F  0838               	movf	POTENCIOMETRO@coordenada,w
  2162  0530  00A4               	movwf	??_POTENCIOMETRO
  2163  0531  01A5               	clrf	??_POTENCIOMETRO+1
  2164  0532  0824               	movf	??_POTENCIOMETRO,w
  2165  0533  00F8               	movwf	lcddirection@x
  2166  0534  0825               	movf	??_POTENCIOMETRO+1,w
  2167  0535  00F9               	movwf	lcddirection@x+1
  2168  0536  3002               	movlw	2
  2169  0537  00FA               	movwf	lcddirection@y
  2170  0538  3000               	movlw	0
  2171  0539  00FB               	movwf	lcddirection@y+1
  2172  053A  306E               	movlw	(low (((STR_12+1)-__stringbase)| (0+32768)))& (0+255)
  2173  053B  00A6               	movwf	??_POTENCIOMETRO+2
  2174  053C  0826               	movf	??_POTENCIOMETRO+2,w
  2175  053D  00FC               	movwf	lcddirection@valor
  2176  053E  120A  158A  2657  120A  118A  	fcall	_lcddirection
  2177  0543                     l1737:	
  2178                           
  2179                           ;LibreriaLCD.c: 187:         if (valor == 6){
  2180  0543  3006               	movlw	6
  2181  0544  1283               	bcf	3,5	;RP0=0, select bank0
  2182  0545  1303               	bcf	3,6	;RP1=0, select bank0
  2183  0546  0637               	xorwf	POTENCIOMETRO@valor,w
  2184  0547  1D03               	btfss	3,2
  2185  0548  2D4A               	goto	u1121
  2186  0549  2D4B               	goto	u1120
  2187  054A                     u1121:	
  2188  054A  2D5F               	goto	l1741
  2189  054B                     u1120:	
  2190  054B                     l1739:	
  2191                           
  2192                           ;LibreriaLCD.c: 188:             lcddirection(coordenada,2,"6");
  2193  054B  0838               	movf	POTENCIOMETRO@coordenada,w
  2194  054C  00A4               	movwf	??_POTENCIOMETRO
  2195  054D  01A5               	clrf	??_POTENCIOMETRO+1
  2196  054E  0824               	movf	??_POTENCIOMETRO,w
  2197  054F  00F8               	movwf	lcddirection@x
  2198  0550  0825               	movf	??_POTENCIOMETRO+1,w
  2199  0551  00F9               	movwf	lcddirection@x+1
  2200  0552  3002               	movlw	2
  2201  0553  00FA               	movwf	lcddirection@y
  2202  0554  3000               	movlw	0
  2203  0555  00FB               	movwf	lcddirection@y+1
  2204  0556  3074               	movlw	(low (((STR_13+1)-__stringbase)| (0+32768)))& (0+255)
  2205  0557  00A6               	movwf	??_POTENCIOMETRO+2
  2206  0558  0826               	movf	??_POTENCIOMETRO+2,w
  2207  0559  00FC               	movwf	lcddirection@valor
  2208  055A  120A  158A  2657  120A  118A  	fcall	_lcddirection
  2209  055F                     l1741:	
  2210                           
  2211                           ;LibreriaLCD.c: 190:         if (valor == 7){
  2212  055F  3007               	movlw	7
  2213  0560  1283               	bcf	3,5	;RP0=0, select bank0
  2214  0561  1303               	bcf	3,6	;RP1=0, select bank0
  2215  0562  0637               	xorwf	POTENCIOMETRO@valor,w
  2216  0563  1D03               	btfss	3,2
  2217  0564  2D66               	goto	u1131
  2218  0565  2D67               	goto	u1130
  2219  0566                     u1131:	
  2220  0566  2D7B               	goto	l1745
  2221  0567                     u1130:	
  2222  0567                     l1743:	
  2223                           
  2224                           ;LibreriaLCD.c: 191:             lcddirection(coordenada,2,"7");
  2225  0567  0838               	movf	POTENCIOMETRO@coordenada,w
  2226  0568  00A4               	movwf	??_POTENCIOMETRO
  2227  0569  01A5               	clrf	??_POTENCIOMETRO+1
  2228  056A  0824               	movf	??_POTENCIOMETRO,w
  2229  056B  00F8               	movwf	lcddirection@x
  2230  056C  0825               	movf	??_POTENCIOMETRO+1,w
  2231  056D  00F9               	movwf	lcddirection@x+1
  2232  056E  3002               	movlw	2
  2233  056F  00FA               	movwf	lcddirection@y
  2234  0570  3000               	movlw	0
  2235  0571  00FB               	movwf	lcddirection@y+1
  2236  0572  307A               	movlw	(low (((STR_14+1)-__stringbase)| (0+32768)))& (0+255)
  2237  0573  00A6               	movwf	??_POTENCIOMETRO+2
  2238  0574  0826               	movf	??_POTENCIOMETRO+2,w
  2239  0575  00FC               	movwf	lcddirection@valor
  2240  0576  120A  158A  2657  120A  118A  	fcall	_lcddirection
  2241  057B                     l1745:	
  2242                           
  2243                           ;LibreriaLCD.c: 193:         if (valor == 8){
  2244  057B  3008               	movlw	8
  2245  057C  1283               	bcf	3,5	;RP0=0, select bank0
  2246  057D  1303               	bcf	3,6	;RP1=0, select bank0
  2247  057E  0637               	xorwf	POTENCIOMETRO@valor,w
  2248  057F  1D03               	btfss	3,2
  2249  0580  2D82               	goto	u1141
  2250  0581  2D83               	goto	u1140
  2251  0582                     u1141:	
  2252  0582  2D97               	goto	l1749
  2253  0583                     u1140:	
  2254  0583                     l1747:	
  2255                           
  2256                           ;LibreriaLCD.c: 194:             lcddirection(coordenada,2,"8");
  2257  0583  0838               	movf	POTENCIOMETRO@coordenada,w
  2258  0584  00A4               	movwf	??_POTENCIOMETRO
  2259  0585  01A5               	clrf	??_POTENCIOMETRO+1
  2260  0586  0824               	movf	??_POTENCIOMETRO,w
  2261  0587  00F8               	movwf	lcddirection@x
  2262  0588  0825               	movf	??_POTENCIOMETRO+1,w
  2263  0589  00F9               	movwf	lcddirection@x+1
  2264  058A  3002               	movlw	2
  2265  058B  00FA               	movwf	lcddirection@y
  2266  058C  3000               	movlw	0
  2267  058D  00FB               	movwf	lcddirection@y+1
  2268  058E  307D               	movlw	(low (((STR_15+1)-__stringbase)| (0+32768)))& (0+255)
  2269  058F  00A6               	movwf	??_POTENCIOMETRO+2
  2270  0590  0826               	movf	??_POTENCIOMETRO+2,w
  2271  0591  00FC               	movwf	lcddirection@valor
  2272  0592  120A  158A  2657  120A  118A  	fcall	_lcddirection
  2273  0597                     l1749:	
  2274                           
  2275                           ;LibreriaLCD.c: 196:         if (valor == 9){
  2276  0597  3009               	movlw	9
  2277  0598  1283               	bcf	3,5	;RP0=0, select bank0
  2278  0599  1303               	bcf	3,6	;RP1=0, select bank0
  2279  059A  0637               	xorwf	POTENCIOMETRO@valor,w
  2280  059B  1D03               	btfss	3,2
  2281  059C  2D9E               	goto	u1151
  2282  059D  2D9F               	goto	u1150
  2283  059E                     u1151:	
  2284  059E  2DB3               	goto	l1753
  2285  059F                     u1150:	
  2286  059F                     l1751:	
  2287                           
  2288                           ;LibreriaLCD.c: 197:             lcddirection(coordenada,2,"9");
  2289  059F  0838               	movf	POTENCIOMETRO@coordenada,w
  2290  05A0  00A4               	movwf	??_POTENCIOMETRO
  2291  05A1  01A5               	clrf	??_POTENCIOMETRO+1
  2292  05A2  0824               	movf	??_POTENCIOMETRO,w
  2293  05A3  00F8               	movwf	lcddirection@x
  2294  05A4  0825               	movf	??_POTENCIOMETRO+1,w
  2295  05A5  00F9               	movwf	lcddirection@x+1
  2296  05A6  3002               	movlw	2
  2297  05A7  00FA               	movwf	lcddirection@y
  2298  05A8  3000               	movlw	0
  2299  05A9  00FB               	movwf	lcddirection@y+1
  2300  05AA  3080               	movlw	(low (((STR_16+1)-__stringbase)| (0+32768)))& (0+255)
  2301  05AB  00A6               	movwf	??_POTENCIOMETRO+2
  2302  05AC  0826               	movf	??_POTENCIOMETRO+2,w
  2303  05AD  00FC               	movwf	lcddirection@valor
  2304  05AE  120A  158A  2657  120A  118A  	fcall	_lcddirection
  2305  05B3                     l1753:	
  2306                           
  2307                           ;LibreriaLCD.c: 199:     }
  2308  05B3  3001               	movlw	1
  2309  05B4  1283               	bcf	3,5	;RP0=0, select bank0
  2310  05B5  1303               	bcf	3,6	;RP1=0, select bank0
  2311  05B6  07B4               	addwf	POTENCIOMETRO@i,f
  2312  05B7  1803               	skipnc
  2313  05B8  0AB5               	incf	POTENCIOMETRO@i+1,f
  2314  05B9  3000               	movlw	0
  2315  05BA  07B5               	addwf	POTENCIOMETRO@i+1,f
  2316  05BB                     l1755:	
  2317  05BB  0835               	movf	POTENCIOMETRO@i+1,w
  2318  05BC  3A80               	xorlw	128
  2319  05BD  00FF               	movwf	btemp+1
  2320  05BE  3080               	movlw	128
  2321  05BF  027F               	subwf	btemp+1,w
  2322  05C0  1D03               	skipz
  2323  05C1  2DC4               	goto	u1165
  2324  05C2  3003               	movlw	3
  2325  05C3  0234               	subwf	POTENCIOMETRO@i,w
  2326  05C4                     u1165:	
  2327  05C4  1C03               	skipc
  2328  05C5  2DC7               	goto	u1161
  2329  05C6  2DC8               	goto	u1160
  2330  05C7                     u1161:	
  2331  05C7  2C77               	goto	l1699
  2332  05C8                     u1160:	
  2333  05C8                     l142:	
  2334  05C8  0008               	return
  2335  05C9                     __end_of_POTENCIOMETRO:	
  2336                           
  2337                           	psect	text6
  2338  0E82                     __ptext6:	
  2339 ;; *************** function _LCDvalue *****************
  2340 ;; Defined at:
  2341 ;;		line 51 in file "LibreriaLCD.c"
  2342 ;; Parameters:    Size  Location     Type
  2343 ;;		None
  2344 ;; Auto vars:     Size  Location     Type
  2345 ;;		None
  2346 ;; Return value:  Size  Location     Type
  2347 ;;                  1    wreg      void 
  2348 ;; Registers used:
  2349 ;;		wreg, status,2, status,0, btemp+1, pclath, cstack
  2350 ;; Tracked objects:
  2351 ;;		On entry : 0/0
  2352 ;;		On exit  : 0/0
  2353 ;;		Unchanged: 0/0
  2354 ;; Data sizes:     COMMON   BANK0   BANK1   BANK3   BANK2
  2355 ;;      Params:         0       0       0       0       0
  2356 ;;      Locals:         0       0       0       0       0
  2357 ;;      Temps:          0       0       0       0       0
  2358 ;;      Totals:         0       0       0       0       0
  2359 ;;Total ram usage:        0 bytes
  2360 ;; Hardware stack levels used:    1
  2361 ;; Hardware stack levels required when called:    3
  2362 ;; This function calls:
  2363 ;;		_Control
  2364 ;;		_delay_ms
  2365 ;; This function is called by:
  2366 ;;		_main
  2367 ;; This function uses a non-reentrant model
  2368 ;;
  2369                           
  2370                           
  2371                           ;psect for function _LCDvalue
  2372  0E82                     _LCDvalue:	
  2373  0E82                     l1575:	
  2374                           ;incstack = 0
  2375                           ; Regs used in _LCDvalue: [wreg+status,2+status,0+btemp+1+pclath+cstack]
  2376                           
  2377                           
  2378                           ;LibreriaLCD.c: 52:     TRISDbits.TRISD6=0;
  2379  0E82  1683               	bsf	3,5	;RP0=1, select bank1
  2380  0E83  1303               	bcf	3,6	;RP1=0, select bank1
  2381  0E84  1308               	bcf	8,6	;volatile
  2382                           
  2383                           ;LibreriaLCD.c: 53:     TRISDbits.TRISD7=0;
  2384  0E85  1388               	bcf	8,7	;volatile
  2385  0E86                     l1577:	
  2386                           
  2387                           ;LibreriaLCD.c: 54:     TRISB=0;
  2388  0E86  0186               	clrf	6	;volatile
  2389  0E87                     l1579:	
  2390                           
  2391                           ;LibreriaLCD.c: 55:     PORTDbits.RD6=0;
  2392  0E87  1283               	bcf	3,5	;RP0=0, select bank0
  2393  0E88  1303               	bcf	3,6	;RP1=0, select bank0
  2394  0E89  1308               	bcf	8,6	;volatile
  2395  0E8A                     l1581:	
  2396                           
  2397                           ;LibreriaLCD.c: 56:     PORTDbits.RD7=0;
  2398  0E8A  1388               	bcf	8,7	;volatile
  2399                           
  2400                           ;LibreriaLCD.c: 57:     PORTB=0;
  2401  0E8B  0186               	clrf	6	;volatile
  2402  0E8C                     l1583:	
  2403                           
  2404                           ;LibreriaLCD.c: 58:     delay_ms(50);
  2405  0E8C  3032               	movlw	50
  2406  0E8D  00F0               	movwf	delay_ms@dms
  2407  0E8E  3000               	movlw	0
  2408  0E8F  00F1               	movwf	delay_ms@dms+1
  2409  0E90  120A  158A  26AE  120A  158A  	fcall	_delay_ms
  2410  0E95                     l1585:	
  2411                           
  2412                           ;LibreriaLCD.c: 59:     Control(0x02);
  2413  0E95  3002               	movlw	2
  2414  0E96  120A  158A  25C6  120A  158A  	fcall	_Control
  2415  0E9B                     l1587:	
  2416                           
  2417                           ;LibreriaLCD.c: 60:     Control(0x38);
  2418  0E9B  3038               	movlw	56
  2419  0E9C  120A  158A  25C6  120A  158A  	fcall	_Control
  2420  0EA1                     l1589:	
  2421                           
  2422                           ;LibreriaLCD.c: 61:     Control(0x0C);
  2423  0EA1  300C               	movlw	12
  2424  0EA2  120A  158A  25C6  120A  158A  	fcall	_Control
  2425  0EA7                     l1591:	
  2426                           
  2427                           ;LibreriaLCD.c: 62:     Control(0x06);
  2428  0EA7  3006               	movlw	6
  2429  0EA8  120A  158A  25C6  120A  158A  	fcall	_Control
  2430  0EAD                     l85:	
  2431  0EAD  0008               	return
  2432  0EAE                     __end_of_LCDvalue:	
  2433                           
  2434                           	psect	text7
  2435  0235                     __ptext7:	
  2436 ;; *************** function _LCDCONT *****************
  2437 ;; Defined at:
  2438 ;;		line 91 in file "LibreriaLCD.c"
  2439 ;; Parameters:    Size  Location     Type
  2440 ;;  x               2    1[BANK0 ] int 
  2441 ;;  z               2    3[BANK0 ] int 
  2442 ;; Auto vars:     Size  Location     Type
  2443 ;;		None
  2444 ;; Return value:  Size  Location     Type
  2445 ;;                  1    wreg      void 
  2446 ;; Registers used:
  2447 ;;		wreg, fsr0l, fsr0h, status,2, status,0, btemp+1, pclath, cstack
  2448 ;; Tracked objects:
  2449 ;;		On entry : 0/0
  2450 ;;		On exit  : 0/0
  2451 ;;		Unchanged: 0/0
  2452 ;; Data sizes:     COMMON   BANK0   BANK1   BANK3   BANK2
  2453 ;;      Params:         0       4       0       0       0
  2454 ;;      Locals:         0       0       0       0       0
  2455 ;;      Temps:          0       1       0       0       0
  2456 ;;      Totals:         0       5       0       0       0
  2457 ;;Total ram usage:        5 bytes
  2458 ;; Hardware stack levels used:    1
  2459 ;; Hardware stack levels required when called:    5
  2460 ;; This function calls:
  2461 ;;		_lcddirection
  2462 ;; This function is called by:
  2463 ;;		_main
  2464 ;; This function uses a non-reentrant model
  2465 ;;
  2466                           
  2467                           
  2468                           ;psect for function _LCDCONT
  2469  0235                     _LCDCONT:	
  2470  0235                     l1623:	
  2471                           ;incstack = 0
  2472                           ; Regs used in _LCDCONT: [wreg-fsr0h+status,2+status,0+btemp+1+pclath+cstack]
  2473                           
  2474                           
  2475                           ;LibreriaLCD.c: 93:     switch (z) {
  2476  0235  2B68               	goto	l1661
  2477  0236                     l1625:	
  2478                           
  2479                           ;LibreriaLCD.c: 95:             lcddirection (x,2,"00");
  2480  0236  0822               	movf	LCDCONT@x+1,w
  2481  0237  00F9               	movwf	lcddirection@x+1
  2482  0238  0821               	movf	LCDCONT@x,w
  2483  0239  00F8               	movwf	lcddirection@x
  2484  023A  3002               	movlw	2
  2485  023B  00FA               	movwf	lcddirection@y
  2486  023C  3000               	movlw	0
  2487  023D  00FB               	movwf	lcddirection@y+1
  2488  023E  304F               	movlw	(low ((STR_7-__stringbase)| (0+32768)))& (0+255)
  2489  023F  00A5               	movwf	??_LCDCONT
  2490  0240  0825               	movf	??_LCDCONT,w
  2491  0241  00FC               	movwf	lcddirection@valor
  2492  0242  120A  158A  2657  120A  118A  	fcall	_lcddirection
  2493                           
  2494                           ;LibreriaLCD.c: 96:             break;
  2495  0247  2BA1               	goto	l121
  2496  0248                     l1627:	
  2497                           
  2498                           ;LibreriaLCD.c: 98:             lcddirection (x,2,"01");
  2499  0248  0822               	movf	LCDCONT@x+1,w
  2500  0249  00F9               	movwf	lcddirection@x+1
  2501  024A  0821               	movf	LCDCONT@x,w
  2502  024B  00F8               	movwf	lcddirection@x
  2503  024C  3002               	movlw	2
  2504  024D  00FA               	movwf	lcddirection@y
  2505  024E  3000               	movlw	0
  2506  024F  00FB               	movwf	lcddirection@y+1
  2507  0250  3055               	movlw	(low ((STR_8-__stringbase)| (0+32768)))& (0+255)
  2508  0251  00A5               	movwf	??_LCDCONT
  2509  0252  0825               	movf	??_LCDCONT,w
  2510  0253  00FC               	movwf	lcddirection@valor
  2511  0254  120A  158A  2657  120A  118A  	fcall	_lcddirection
  2512                           
  2513                           ;LibreriaLCD.c: 99:             break;
  2514  0259  2BA1               	goto	l121
  2515  025A                     l1629:	
  2516                           
  2517                           ;LibreriaLCD.c: 101:             lcddirection (x,2,"02");
  2518  025A  0822               	movf	LCDCONT@x+1,w
  2519  025B  00F9               	movwf	lcddirection@x+1
  2520  025C  0821               	movf	LCDCONT@x,w
  2521  025D  00F8               	movwf	lcddirection@x
  2522  025E  3002               	movlw	2
  2523  025F  00FA               	movwf	lcddirection@y
  2524  0260  3000               	movlw	0
  2525  0261  00FB               	movwf	lcddirection@y+1
  2526  0262  305B               	movlw	(low ((STR_9-__stringbase)| (0+32768)))& (0+255)
  2527  0263  00A5               	movwf	??_LCDCONT
  2528  0264  0825               	movf	??_LCDCONT,w
  2529  0265  00FC               	movwf	lcddirection@valor
  2530  0266  120A  158A  2657  120A  118A  	fcall	_lcddirection
  2531                           
  2532                           ;LibreriaLCD.c: 102:             break;
  2533  026B  2BA1               	goto	l121
  2534  026C                     l1631:	
  2535                           
  2536                           ;LibreriaLCD.c: 104:             lcddirection (x,2,"03");
  2537  026C  0822               	movf	LCDCONT@x+1,w
  2538  026D  00F9               	movwf	lcddirection@x+1
  2539  026E  0821               	movf	LCDCONT@x,w
  2540  026F  00F8               	movwf	lcddirection@x
  2541  0270  3002               	movlw	2
  2542  0271  00FA               	movwf	lcddirection@y
  2543  0272  3000               	movlw	0
  2544  0273  00FB               	movwf	lcddirection@y+1
  2545  0274  3061               	movlw	(low ((STR_10-__stringbase)| (0+32768)))& (0+255)
  2546  0275  00A5               	movwf	??_LCDCONT
  2547  0276  0825               	movf	??_LCDCONT,w
  2548  0277  00FC               	movwf	lcddirection@valor
  2549  0278  120A  158A  2657  120A  118A  	fcall	_lcddirection
  2550                           
  2551                           ;LibreriaLCD.c: 105:             break;
  2552  027D  2BA1               	goto	l121
  2553  027E                     l1633:	
  2554                           
  2555                           ;LibreriaLCD.c: 107:             lcddirection (x,2,"04");
  2556  027E  0822               	movf	LCDCONT@x+1,w
  2557  027F  00F9               	movwf	lcddirection@x+1
  2558  0280  0821               	movf	LCDCONT@x,w
  2559  0281  00F8               	movwf	lcddirection@x
  2560  0282  3002               	movlw	2
  2561  0283  00FA               	movwf	lcddirection@y
  2562  0284  3000               	movlw	0
  2563  0285  00FB               	movwf	lcddirection@y+1
  2564  0286  3067               	movlw	(low ((STR_11-__stringbase)| (0+32768)))& (0+255)
  2565  0287  00A5               	movwf	??_LCDCONT
  2566  0288  0825               	movf	??_LCDCONT,w
  2567  0289  00FC               	movwf	lcddirection@valor
  2568  028A  120A  158A  2657  120A  118A  	fcall	_lcddirection
  2569                           
  2570                           ;LibreriaLCD.c: 108:             break;
  2571  028F  2BA1               	goto	l121
  2572  0290                     l1635:	
  2573                           
  2574                           ;LibreriaLCD.c: 110:             lcddirection (x,2,"05");
  2575  0290  0822               	movf	LCDCONT@x+1,w
  2576  0291  00F9               	movwf	lcddirection@x+1
  2577  0292  0821               	movf	LCDCONT@x,w
  2578  0293  00F8               	movwf	lcddirection@x
  2579  0294  3002               	movlw	2
  2580  0295  00FA               	movwf	lcddirection@y
  2581  0296  3000               	movlw	0
  2582  0297  00FB               	movwf	lcddirection@y+1
  2583  0298  306D               	movlw	(low ((STR_12-__stringbase)| (0+32768)))& (0+255)
  2584  0299  00A5               	movwf	??_LCDCONT
  2585  029A  0825               	movf	??_LCDCONT,w
  2586  029B  00FC               	movwf	lcddirection@valor
  2587  029C  120A  158A  2657  120A  118A  	fcall	_lcddirection
  2588                           
  2589                           ;LibreriaLCD.c: 111:             break;
  2590  02A1  2BA1               	goto	l121
  2591  02A2                     l1637:	
  2592                           
  2593                           ;LibreriaLCD.c: 113:             lcddirection (x,2,"06");
  2594  02A2  0822               	movf	LCDCONT@x+1,w
  2595  02A3  00F9               	movwf	lcddirection@x+1
  2596  02A4  0821               	movf	LCDCONT@x,w
  2597  02A5  00F8               	movwf	lcddirection@x
  2598  02A6  3002               	movlw	2
  2599  02A7  00FA               	movwf	lcddirection@y
  2600  02A8  3000               	movlw	0
  2601  02A9  00FB               	movwf	lcddirection@y+1
  2602  02AA  3073               	movlw	(low ((STR_13-__stringbase)| (0+32768)))& (0+255)
  2603  02AB  00A5               	movwf	??_LCDCONT
  2604  02AC  0825               	movf	??_LCDCONT,w
  2605  02AD  00FC               	movwf	lcddirection@valor
  2606  02AE  120A  158A  2657  120A  118A  	fcall	_lcddirection
  2607                           
  2608                           ;LibreriaLCD.c: 114:             break;
  2609  02B3  2BA1               	goto	l121
  2610  02B4                     l1639:	
  2611                           
  2612                           ;LibreriaLCD.c: 116:             lcddirection (x,2,"07");
  2613  02B4  0822               	movf	LCDCONT@x+1,w
  2614  02B5  00F9               	movwf	lcddirection@x+1
  2615  02B6  0821               	movf	LCDCONT@x,w
  2616  02B7  00F8               	movwf	lcddirection@x
  2617  02B8  3002               	movlw	2
  2618  02B9  00FA               	movwf	lcddirection@y
  2619  02BA  3000               	movlw	0
  2620  02BB  00FB               	movwf	lcddirection@y+1
  2621  02BC  3079               	movlw	(low ((STR_14-__stringbase)| (0+32768)))& (0+255)
  2622  02BD  00A5               	movwf	??_LCDCONT
  2623  02BE  0825               	movf	??_LCDCONT,w
  2624  02BF  00FC               	movwf	lcddirection@valor
  2625  02C0  120A  158A  2657  120A  118A  	fcall	_lcddirection
  2626                           
  2627                           ;LibreriaLCD.c: 117:             break;
  2628  02C5  2BA1               	goto	l121
  2629  02C6                     l1641:	
  2630                           
  2631                           ;LibreriaLCD.c: 119:             lcddirection (x,2,"08");
  2632  02C6  0822               	movf	LCDCONT@x+1,w
  2633  02C7  00F9               	movwf	lcddirection@x+1
  2634  02C8  0821               	movf	LCDCONT@x,w
  2635  02C9  00F8               	movwf	lcddirection@x
  2636  02CA  3002               	movlw	2
  2637  02CB  00FA               	movwf	lcddirection@y
  2638  02CC  3000               	movlw	0
  2639  02CD  00FB               	movwf	lcddirection@y+1
  2640  02CE  307C               	movlw	(low ((STR_15-__stringbase)| (0+32768)))& (0+255)
  2641  02CF  00A5               	movwf	??_LCDCONT
  2642  02D0  0825               	movf	??_LCDCONT,w
  2643  02D1  00FC               	movwf	lcddirection@valor
  2644  02D2  120A  158A  2657  120A  118A  	fcall	_lcddirection
  2645                           
  2646                           ;LibreriaLCD.c: 120:             break;
  2647  02D7  2BA1               	goto	l121
  2648  02D8                     l1643:	
  2649                           
  2650                           ;LibreriaLCD.c: 122:             lcddirection (x,2,"09");
  2651  02D8  0822               	movf	LCDCONT@x+1,w
  2652  02D9  00F9               	movwf	lcddirection@x+1
  2653  02DA  0821               	movf	LCDCONT@x,w
  2654  02DB  00F8               	movwf	lcddirection@x
  2655  02DC  3002               	movlw	2
  2656  02DD  00FA               	movwf	lcddirection@y
  2657  02DE  3000               	movlw	0
  2658  02DF  00FB               	movwf	lcddirection@y+1
  2659  02E0  307F               	movlw	(low ((STR_16-__stringbase)| (0+32768)))& (0+255)
  2660  02E1  00A5               	movwf	??_LCDCONT
  2661  02E2  0825               	movf	??_LCDCONT,w
  2662  02E3  00FC               	movwf	lcddirection@valor
  2663  02E4  120A  158A  2657  120A  118A  	fcall	_lcddirection
  2664                           
  2665                           ;LibreriaLCD.c: 123:             break;
  2666  02E9  2BA1               	goto	l121
  2667  02EA                     l1645:	
  2668                           
  2669                           ;LibreriaLCD.c: 125:             lcddirection (x,2,"10");
  2670  02EA  0822               	movf	LCDCONT@x+1,w
  2671  02EB  00F9               	movwf	lcddirection@x+1
  2672  02EC  0821               	movf	LCDCONT@x,w
  2673  02ED  00F8               	movwf	lcddirection@x
  2674  02EE  3002               	movlw	2
  2675  02EF  00FA               	movwf	lcddirection@y
  2676  02F0  3000               	movlw	0
  2677  02F1  00FB               	movwf	lcddirection@y+1
  2678  02F2  3052               	movlw	(low ((STR_17-__stringbase)| (0+32768)))& (0+255)
  2679  02F3  00A5               	movwf	??_LCDCONT
  2680  02F4  0825               	movf	??_LCDCONT,w
  2681  02F5  00FC               	movwf	lcddirection@valor
  2682  02F6  120A  158A  2657  120A  118A  	fcall	_lcddirection
  2683                           
  2684                           ;LibreriaLCD.c: 126:             break;
  2685  02FB  2BA1               	goto	l121
  2686  02FC                     l1647:	
  2687                           
  2688                           ;LibreriaLCD.c: 128:             lcddirection (x,2,"11");
  2689  02FC  0822               	movf	LCDCONT@x+1,w
  2690  02FD  00F9               	movwf	lcddirection@x+1
  2691  02FE  0821               	movf	LCDCONT@x,w
  2692  02FF  00F8               	movwf	lcddirection@x
  2693  0300  3002               	movlw	2
  2694  0301  00FA               	movwf	lcddirection@y
  2695  0302  3000               	movlw	0
  2696  0303  00FB               	movwf	lcddirection@y+1
  2697  0304  3058               	movlw	(low ((STR_18-__stringbase)| (0+32768)))& (0+255)
  2698  0305  00A5               	movwf	??_LCDCONT
  2699  0306  0825               	movf	??_LCDCONT,w
  2700  0307  00FC               	movwf	lcddirection@valor
  2701  0308  120A  158A  2657  120A  118A  	fcall	_lcddirection
  2702                           
  2703                           ;LibreriaLCD.c: 129:             break;
  2704  030D  2BA1               	goto	l121
  2705  030E                     l1649:	
  2706                           
  2707                           ;LibreriaLCD.c: 131:             lcddirection (x,2,"12");
  2708  030E  0822               	movf	LCDCONT@x+1,w
  2709  030F  00F9               	movwf	lcddirection@x+1
  2710  0310  0821               	movf	LCDCONT@x,w
  2711  0311  00F8               	movwf	lcddirection@x
  2712  0312  3002               	movlw	2
  2713  0313  00FA               	movwf	lcddirection@y
  2714  0314  3000               	movlw	0
  2715  0315  00FB               	movwf	lcddirection@y+1
  2716  0316  305E               	movlw	(low ((STR_19-__stringbase)| (0+32768)))& (0+255)
  2717  0317  00A5               	movwf	??_LCDCONT
  2718  0318  0825               	movf	??_LCDCONT,w
  2719  0319  00FC               	movwf	lcddirection@valor
  2720  031A  120A  158A  2657  120A  118A  	fcall	_lcddirection
  2721                           
  2722                           ;LibreriaLCD.c: 132:             break;
  2723  031F  2BA1               	goto	l121
  2724  0320                     l1651:	
  2725                           
  2726                           ;LibreriaLCD.c: 134:             lcddirection (x,2,"13");
  2727  0320  0822               	movf	LCDCONT@x+1,w
  2728  0321  00F9               	movwf	lcddirection@x+1
  2729  0322  0821               	movf	LCDCONT@x,w
  2730  0323  00F8               	movwf	lcddirection@x
  2731  0324  3002               	movlw	2
  2732  0325  00FA               	movwf	lcddirection@y
  2733  0326  3000               	movlw	0
  2734  0327  00FB               	movwf	lcddirection@y+1
  2735  0328  3064               	movlw	(low ((STR_20-__stringbase)| (0+32768)))& (0+255)
  2736  0329  00A5               	movwf	??_LCDCONT
  2737  032A  0825               	movf	??_LCDCONT,w
  2738  032B  00FC               	movwf	lcddirection@valor
  2739  032C  120A  158A  2657  120A  118A  	fcall	_lcddirection
  2740                           
  2741                           ;LibreriaLCD.c: 135:             break;
  2742  0331  2BA1               	goto	l121
  2743  0332                     l1653:	
  2744                           
  2745                           ;LibreriaLCD.c: 137:             lcddirection (x,2,"14");
  2746  0332  0822               	movf	LCDCONT@x+1,w
  2747  0333  00F9               	movwf	lcddirection@x+1
  2748  0334  0821               	movf	LCDCONT@x,w
  2749  0335  00F8               	movwf	lcddirection@x
  2750  0336  3002               	movlw	2
  2751  0337  00FA               	movwf	lcddirection@y
  2752  0338  3000               	movlw	0
  2753  0339  00FB               	movwf	lcddirection@y+1
  2754  033A  306A               	movlw	(low ((STR_21-__stringbase)| (0+32768)))& (0+255)
  2755  033B  00A5               	movwf	??_LCDCONT
  2756  033C  0825               	movf	??_LCDCONT,w
  2757  033D  00FC               	movwf	lcddirection@valor
  2758  033E  120A  158A  2657  120A  118A  	fcall	_lcddirection
  2759                           
  2760                           ;LibreriaLCD.c: 138:             break;
  2761  0343  2BA1               	goto	l121
  2762  0344                     l1655:	
  2763                           
  2764                           ;LibreriaLCD.c: 140:             lcddirection (x,2,"15");
  2765  0344  0822               	movf	LCDCONT@x+1,w
  2766  0345  00F9               	movwf	lcddirection@x+1
  2767  0346  0821               	movf	LCDCONT@x,w
  2768  0347  00F8               	movwf	lcddirection@x
  2769  0348  3002               	movlw	2
  2770  0349  00FA               	movwf	lcddirection@y
  2771  034A  3000               	movlw	0
  2772  034B  00FB               	movwf	lcddirection@y+1
  2773  034C  3070               	movlw	(low ((STR_22-__stringbase)| (0+32768)))& (0+255)
  2774  034D  00A5               	movwf	??_LCDCONT
  2775  034E  0825               	movf	??_LCDCONT,w
  2776  034F  00FC               	movwf	lcddirection@valor
  2777  0350  120A  158A  2657  120A  118A  	fcall	_lcddirection
  2778                           
  2779                           ;LibreriaLCD.c: 141:             break;
  2780  0355  2BA1               	goto	l121
  2781  0356                     l1657:	
  2782                           
  2783                           ;LibreriaLCD.c: 143:             lcddirection (x,2,"16");
  2784  0356  0822               	movf	LCDCONT@x+1,w
  2785  0357  00F9               	movwf	lcddirection@x+1
  2786  0358  0821               	movf	LCDCONT@x,w
  2787  0359  00F8               	movwf	lcddirection@x
  2788  035A  3002               	movlw	2
  2789  035B  00FA               	movwf	lcddirection@y
  2790  035C  3000               	movlw	0
  2791  035D  00FB               	movwf	lcddirection@y+1
  2792  035E  3076               	movlw	(low ((STR_23-__stringbase)| (0+32768)))& (0+255)
  2793  035F  00A5               	movwf	??_LCDCONT
  2794  0360  0825               	movf	??_LCDCONT,w
  2795  0361  00FC               	movwf	lcddirection@valor
  2796  0362  120A  158A  2657  120A  118A  	fcall	_lcddirection
  2797                           
  2798                           ;LibreriaLCD.c: 144:             break;
  2799  0367  2BA1               	goto	l121
  2800  0368                     l1661:	
  2801                           
  2802                           ; Switch on 2 bytes has been partitioned into a top level switch of size 1, and 1 sub-sw
      +                          itches
  2803                           ; Switch size 1, requested type "simple"
  2804                           ; Number of cases is 1, Range of values is 0 to 0
  2805                           ; switch strategies available:
  2806                           ; Name         Instructions Cycles
  2807                           ; simple_byte            4     3 (average)
  2808                           ; direct_byte           11     8 (fixed)
  2809                           ; jumptable            260     6 (fixed)
  2810                           ;	Chosen strategy is simple_byte
  2811  0368  1283               	bcf	3,5	;RP0=0, select bank0
  2812  0369  1303               	bcf	3,6	;RP1=0, select bank0
  2813  036A  0824               	movf	LCDCONT@z+1,w
  2814  036B  3A00               	xorlw	0	; case 0
  2815  036C  1903               	skipnz
  2816  036D  2B6F               	goto	l1935
  2817  036E  2B56               	goto	l1657
  2818  036F                     l1935:	
  2819                           
  2820                           ; Switch size 1, requested type "simple"
  2821                           ; Number of cases is 16, Range of values is 0 to 15
  2822                           ; switch strategies available:
  2823                           ; Name         Instructions Cycles
  2824                           ; simple_byte           49    25 (average)
  2825                           ; direct_byte           56     8 (fixed)
  2826                           ; jumptable            260     6 (fixed)
  2827                           ;	Chosen strategy is simple_byte
  2828  036F  0823               	movf	LCDCONT@z,w
  2829  0370  3A00               	xorlw	0	; case 0
  2830  0371  1903               	skipnz
  2831  0372  2A36               	goto	l1625
  2832  0373  3A01               	xorlw	1	; case 1
  2833  0374  1903               	skipnz
  2834  0375  2A48               	goto	l1627
  2835  0376  3A03               	xorlw	3	; case 2
  2836  0377  1903               	skipnz
  2837  0378  2A5A               	goto	l1629
  2838  0379  3A01               	xorlw	1	; case 3
  2839  037A  1903               	skipnz
  2840  037B  2A6C               	goto	l1631
  2841  037C  3A07               	xorlw	7	; case 4
  2842  037D  1903               	skipnz
  2843  037E  2A7E               	goto	l1633
  2844  037F  3A01               	xorlw	1	; case 5
  2845  0380  1903               	skipnz
  2846  0381  2A90               	goto	l1635
  2847  0382  3A03               	xorlw	3	; case 6
  2848  0383  1903               	skipnz
  2849  0384  2AA2               	goto	l1637
  2850  0385  3A01               	xorlw	1	; case 7
  2851  0386  1903               	skipnz
  2852  0387  2AB4               	goto	l1639
  2853  0388  3A0F               	xorlw	15	; case 8
  2854  0389  1903               	skipnz
  2855  038A  2AC6               	goto	l1641
  2856  038B  3A01               	xorlw	1	; case 9
  2857  038C  1903               	skipnz
  2858  038D  2AD8               	goto	l1643
  2859  038E  3A03               	xorlw	3	; case 10
  2860  038F  1903               	skipnz
  2861  0390  2AEA               	goto	l1645
  2862  0391  3A01               	xorlw	1	; case 11
  2863  0392  1903               	skipnz
  2864  0393  2AFC               	goto	l1647
  2865  0394  3A07               	xorlw	7	; case 12
  2866  0395  1903               	skipnz
  2867  0396  2B0E               	goto	l1649
  2868  0397  3A01               	xorlw	1	; case 13
  2869  0398  1903               	skipnz
  2870  0399  2B20               	goto	l1651
  2871  039A  3A03               	xorlw	3	; case 14
  2872  039B  1903               	skipnz
  2873  039C  2B32               	goto	l1653
  2874  039D  3A01               	xorlw	1	; case 15
  2875  039E  1903               	skipnz
  2876  039F  2B44               	goto	l1655
  2877  03A0  2B56               	goto	l1657
  2878  03A1                     l121:	
  2879  03A1  0008               	return
  2880  03A2                     __end_of_LCDCONT:	
  2881                           
  2882                           	psect	text8
  2883  0DBC                     __ptext8:	
  2884 ;; *************** function _I2C_Master_Write *****************
  2885 ;; Defined at:
  2886 ;;		line 32 in file "I2C.c"
  2887 ;; Parameters:    Size  Location     Type
  2888 ;;  d               2    0[COMMON] unsigned int 
  2889 ;; Auto vars:     Size  Location     Type
  2890 ;;		None
  2891 ;; Return value:  Size  Location     Type
  2892 ;;                  1    wreg      void 
  2893 ;; Registers used:
  2894 ;;		wreg, status,2, status,0, pclath, cstack
  2895 ;; Tracked objects:
  2896 ;;		On entry : 0/0
  2897 ;;		On exit  : 0/0
  2898 ;;		Unchanged: 0/0
  2899 ;; Data sizes:     COMMON   BANK0   BANK1   BANK3   BANK2
  2900 ;;      Params:         2       0       0       0       0
  2901 ;;      Locals:         0       0       0       0       0
  2902 ;;      Temps:          0       0       0       0       0
  2903 ;;      Totals:         2       0       0       0       0
  2904 ;;Total ram usage:        2 bytes
  2905 ;; Hardware stack levels used:    1
  2906 ;; Hardware stack levels required when called:    1
  2907 ;; This function calls:
  2908 ;;		_I2C_Master_Wait
  2909 ;; This function is called by:
  2910 ;;		_main
  2911 ;; This function uses a non-reentrant model
  2912 ;;
  2913                           
  2914                           
  2915                           ;psect for function _I2C_Master_Write
  2916  0DBC                     _I2C_Master_Write:	
  2917  0DBC                     l1599:	
  2918                           ;incstack = 0
  2919                           ; Regs used in _I2C_Master_Write: [wreg+status,2+status,0+pclath+cstack]
  2920                           
  2921                           
  2922                           ;I2C.c: 33:     I2C_Master_Wait();
  2923  0DBC  120A  118A  208F  120A  158A  	fcall	_I2C_Master_Wait
  2924  0DC1                     l1601:	
  2925                           
  2926                           ;I2C.c: 34:     SSPBUF = d;
  2927  0DC1  0870               	movf	I2C_Master_Write@d,w
  2928  0DC2  1283               	bcf	3,5	;RP0=0, select bank0
  2929  0DC3  1303               	bcf	3,6	;RP1=0, select bank0
  2930  0DC4  0093               	movwf	19	;volatile
  2931  0DC5                     l213:	
  2932  0DC5  0008               	return
  2933  0DC6                     __end_of_I2C_Master_Write:	
  2934                           
  2935                           	psect	text9
  2936  0DB3                     __ptext9:	
  2937 ;; *************** function _I2C_Master_Stop *****************
  2938 ;; Defined at:
  2939 ;;		line 27 in file "I2C.c"
  2940 ;; Parameters:    Size  Location     Type
  2941 ;;		None
  2942 ;; Auto vars:     Size  Location     Type
  2943 ;;		None
  2944 ;; Return value:  Size  Location     Type
  2945 ;;                  1    wreg      void 
  2946 ;; Registers used:
  2947 ;;		wreg, status,2, status,0, pclath, cstack
  2948 ;; Tracked objects:
  2949 ;;		On entry : 0/0
  2950 ;;		On exit  : 0/0
  2951 ;;		Unchanged: 0/0
  2952 ;; Data sizes:     COMMON   BANK0   BANK1   BANK3   BANK2
  2953 ;;      Params:         0       0       0       0       0
  2954 ;;      Locals:         0       0       0       0       0
  2955 ;;      Temps:          0       0       0       0       0
  2956 ;;      Totals:         0       0       0       0       0
  2957 ;;Total ram usage:        0 bytes
  2958 ;; Hardware stack levels used:    1
  2959 ;; Hardware stack levels required when called:    1
  2960 ;; This function calls:
  2961 ;;		_I2C_Master_Wait
  2962 ;; This function is called by:
  2963 ;;		_main
  2964 ;; This function uses a non-reentrant model
  2965 ;;
  2966                           
  2967                           
  2968                           ;psect for function _I2C_Master_Stop
  2969  0DB3                     _I2C_Master_Stop:	
  2970  0DB3                     l1619:	
  2971                           ;incstack = 0
  2972                           ; Regs used in _I2C_Master_Stop: [wreg+status,2+status,0+pclath+cstack]
  2973                           
  2974                           
  2975                           ;I2C.c: 28:     I2C_Master_Wait();
  2976  0DB3  120A  118A  208F  120A  158A  	fcall	_I2C_Master_Wait
  2977  0DB8                     l1621:	
  2978                           
  2979                           ;I2C.c: 29:     SSPCON2bits.PEN = 1;
  2980  0DB8  1683               	bsf	3,5	;RP0=1, select bank1
  2981  0DB9  1303               	bcf	3,6	;RP1=0, select bank1
  2982  0DBA  1511               	bsf	17,2	;volatile
  2983  0DBB                     l210:	
  2984  0DBB  0008               	return
  2985  0DBC                     __end_of_I2C_Master_Stop:	
  2986                           
  2987                           	psect	text10
  2988  0DAA                     __ptext10:	
  2989 ;; *************** function _I2C_Master_Start *****************
  2990 ;; Defined at:
  2991 ;;		line 17 in file "I2C.c"
  2992 ;; Parameters:    Size  Location     Type
  2993 ;;		None
  2994 ;; Auto vars:     Size  Location     Type
  2995 ;;		None
  2996 ;; Return value:  Size  Location     Type
  2997 ;;                  1    wreg      void 
  2998 ;; Registers used:
  2999 ;;		wreg, status,2, status,0, pclath, cstack
  3000 ;; Tracked objects:
  3001 ;;		On entry : 0/0
  3002 ;;		On exit  : 0/0
  3003 ;;		Unchanged: 0/0
  3004 ;; Data sizes:     COMMON   BANK0   BANK1   BANK3   BANK2
  3005 ;;      Params:         0       0       0       0       0
  3006 ;;      Locals:         0       0       0       0       0
  3007 ;;      Temps:          0       0       0       0       0
  3008 ;;      Totals:         0       0       0       0       0
  3009 ;;Total ram usage:        0 bytes
  3010 ;; Hardware stack levels used:    1
  3011 ;; Hardware stack levels required when called:    1
  3012 ;; This function calls:
  3013 ;;		_I2C_Master_Wait
  3014 ;; This function is called by:
  3015 ;;		_main
  3016 ;; This function uses a non-reentrant model
  3017 ;;
  3018                           
  3019                           
  3020                           ;psect for function _I2C_Master_Start
  3021  0DAA                     _I2C_Master_Start:	
  3022  0DAA                     l1595:	
  3023                           ;incstack = 0
  3024                           ; Regs used in _I2C_Master_Start: [wreg+status,2+status,0+pclath+cstack]
  3025                           
  3026                           
  3027                           ;I2C.c: 18:     I2C_Master_Wait();
  3028  0DAA  120A  118A  208F  120A  158A  	fcall	_I2C_Master_Wait
  3029  0DAF                     l1597:	
  3030                           
  3031                           ;I2C.c: 19:     SSPCON2bits.SEN = 1;
  3032  0DAF  1683               	bsf	3,5	;RP0=1, select bank1
  3033  0DB0  1303               	bcf	3,6	;RP1=0, select bank1
  3034  0DB1  1411               	bsf	17,0	;volatile
  3035  0DB2                     l204:	
  3036  0DB2  0008               	return
  3037  0DB3                     __end_of_I2C_Master_Start:	
  3038                           
  3039                           	psect	text11
  3040  0EDB                     __ptext11:	
  3041 ;; *************** function _I2C_Master_Read *****************
  3042 ;; Defined at:
  3043 ;;		line 37 in file "I2C.c"
  3044 ;; Parameters:    Size  Location     Type
  3045 ;;  a               2    0[COMMON] unsigned short 
  3046 ;; Auto vars:     Size  Location     Type
  3047 ;;  temp            2    4[COMMON] unsigned short 
  3048 ;; Return value:  Size  Location     Type
  3049 ;;                  2    0[COMMON] unsigned short 
  3050 ;; Registers used:
  3051 ;;		wreg, status,2, status,0, pclath, cstack
  3052 ;; Tracked objects:
  3053 ;;		On entry : 0/0
  3054 ;;		On exit  : 0/0
  3055 ;;		Unchanged: 0/0
  3056 ;; Data sizes:     COMMON   BANK0   BANK1   BANK3   BANK2
  3057 ;;      Params:         2       0       0       0       0
  3058 ;;      Locals:         2       0       0       0       0
  3059 ;;      Temps:          2       0       0       0       0
  3060 ;;      Totals:         6       0       0       0       0
  3061 ;;Total ram usage:        6 bytes
  3062 ;; Hardware stack levels used:    1
  3063 ;; Hardware stack levels required when called:    1
  3064 ;; This function calls:
  3065 ;;		_I2C_Master_Wait
  3066 ;; This function is called by:
  3067 ;;		_main
  3068 ;; This function uses a non-reentrant model
  3069 ;;
  3070                           
  3071                           
  3072                           ;psect for function _I2C_Master_Read
  3073  0EDB                     _I2C_Master_Read:	
  3074  0EDB                     l1603:	
  3075                           ;incstack = 0
  3076                           ; Regs used in _I2C_Master_Read: [wreg+status,2+status,0+pclath+cstack]
  3077                           
  3078                           
  3079                           ;I2C.c: 38:     unsigned short temp;;I2C.c: 39:     I2C_Master_Wait();
  3080  0EDB  120A  118A  208F  120A  158A  	fcall	_I2C_Master_Wait
  3081  0EE0                     l1605:	
  3082                           
  3083                           ;I2C.c: 40:     SSPCON2bits.RCEN = 1;
  3084  0EE0  1683               	bsf	3,5	;RP0=1, select bank1
  3085  0EE1  1303               	bcf	3,6	;RP1=0, select bank1
  3086  0EE2  1591               	bsf	17,3	;volatile
  3087                           
  3088                           ;I2C.c: 41:     I2C_Master_Wait();
  3089  0EE3  120A  118A  208F  120A  158A  	fcall	_I2C_Master_Wait
  3090  0EE8                     l1607:	
  3091                           
  3092                           ;I2C.c: 42:     temp = SSPBUF;
  3093  0EE8  1283               	bcf	3,5	;RP0=0, select bank0
  3094  0EE9  1303               	bcf	3,6	;RP1=0, select bank0
  3095  0EEA  0813               	movf	19,w	;volatile
  3096  0EEB  00F2               	movwf	??_I2C_Master_Read
  3097  0EEC  01F3               	clrf	??_I2C_Master_Read+1
  3098  0EED  0872               	movf	??_I2C_Master_Read,w
  3099  0EEE  00F4               	movwf	I2C_Master_Read@temp
  3100  0EEF  0873               	movf	??_I2C_Master_Read+1,w
  3101  0EF0  00F5               	movwf	I2C_Master_Read@temp+1
  3102  0EF1                     l1609:	
  3103                           
  3104                           ;I2C.c: 43:     I2C_Master_Wait();
  3105  0EF1  120A  118A  208F  120A  158A  	fcall	_I2C_Master_Wait
  3106  0EF6                     l1611:	
  3107                           
  3108                           ;I2C.c: 44:     if(a == 1){
  3109  0EF6  0370               	decf	I2C_Master_Read@a,w
  3110  0EF7  0471               	iorwf	I2C_Master_Read@a+1,w
  3111  0EF8  1D03               	btfss	3,2
  3112  0EF9  2EFB               	goto	u1001
  3113  0EFA  2EFC               	goto	u1000
  3114  0EFB                     u1001:	
  3115  0EFB  2F00               	goto	l216
  3116  0EFC                     u1000:	
  3117  0EFC                     l1613:	
  3118                           
  3119                           ;I2C.c: 45:         SSPCON2bits.ACKDT = 0;
  3120  0EFC  1683               	bsf	3,5	;RP0=1, select bank1
  3121  0EFD  1303               	bcf	3,6	;RP1=0, select bank1
  3122  0EFE  1291               	bcf	17,5	;volatile
  3123                           
  3124                           ;I2C.c: 46:     }else{
  3125  0EFF  2F03               	goto	l217
  3126  0F00                     l216:	
  3127                           
  3128                           ;I2C.c: 47:         SSPCON2bits.ACKDT = 1;
  3129  0F00  1683               	bsf	3,5	;RP0=1, select bank1
  3130  0F01  1303               	bcf	3,6	;RP1=0, select bank1
  3131  0F02  1691               	bsf	17,5	;volatile
  3132  0F03                     l217:	
  3133                           ;I2C.c: 48:     }
  3134                           
  3135                           
  3136                           ;I2C.c: 49:     SSPCON2bits.ACKEN = 1;
  3137  0F03  1611               	bsf	17,4	;volatile
  3138  0F04                     l1615:	
  3139                           
  3140                           ;I2C.c: 50:     return temp;
  3141  0F04  0875               	movf	I2C_Master_Read@temp+1,w
  3142  0F05  00F1               	movwf	?_I2C_Master_Read+1
  3143  0F06  0874               	movf	I2C_Master_Read@temp,w
  3144  0F07  00F0               	movwf	?_I2C_Master_Read
  3145  0F08                     l218:	
  3146  0F08  0008               	return
  3147  0F09                     __end_of_I2C_Master_Read:	
  3148                           
  3149                           	psect	text12
  3150  008F                     __ptext12:	
  3151 ;; *************** function _I2C_Master_Wait *****************
  3152 ;; Defined at:
  3153 ;;		line 13 in file "I2C.c"
  3154 ;; Parameters:    Size  Location     Type
  3155 ;;		None
  3156 ;; Auto vars:     Size  Location     Type
  3157 ;;		None
  3158 ;; Return value:  Size  Location     Type
  3159 ;;                  1    wreg      void 
  3160 ;; Registers used:
  3161 ;;		wreg, status,2
  3162 ;; Tracked objects:
  3163 ;;		On entry : 0/0
  3164 ;;		On exit  : 0/0
  3165 ;;		Unchanged: 0/0
  3166 ;; Data sizes:     COMMON   BANK0   BANK1   BANK3   BANK2
  3167 ;;      Params:         0       0       0       0       0
  3168 ;;      Locals:         0       0       0       0       0
  3169 ;;      Temps:          0       0       0       0       0
  3170 ;;      Totals:         0       0       0       0       0
  3171 ;;Total ram usage:        0 bytes
  3172 ;; Hardware stack levels used:    1
  3173 ;; This function calls:
  3174 ;;		Nothing
  3175 ;; This function is called by:
  3176 ;;		_I2C_Master_Start
  3177 ;;		_I2C_Master_Stop
  3178 ;;		_I2C_Master_Write
  3179 ;;		_I2C_Master_Read
  3180 ;;		_I2C_Master_RepeatedStart
  3181 ;; This function uses a non-reentrant model
  3182 ;;
  3183                           
  3184                           
  3185                           ;psect for function _I2C_Master_Wait
  3186  008F                     _I2C_Master_Wait:	
  3187  008F                     l1485:	
  3188                           ;incstack = 0
  3189                           ; Regs used in _I2C_Master_Wait: [wreg+status,2]
  3190                           
  3191  008F                     l198:	
  3192                           ;I2C.c: 14:     while ((SSPSTAT & 0x04) || (SSPCON2 & 0x1F));
  3193                           
  3194  008F  1683               	bsf	3,5	;RP0=1, select bank1
  3195  0090  1303               	bcf	3,6	;RP1=0, select bank1
  3196  0091  1914               	btfsc	20,2	;volatile
  3197  0092  2894               	goto	u791
  3198  0093  2895               	goto	u790
  3199  0094                     u791:	
  3200  0094  288F               	goto	l198
  3201  0095                     u790:	
  3202  0095                     l1487:	
  3203  0095  0811               	movf	17,w	;volatile
  3204  0096  391F               	andlw	31
  3205  0097  1D03               	btfss	3,2
  3206  0098  289A               	goto	u801
  3207  0099  289B               	goto	u800
  3208  009A                     u801:	
  3209  009A  288F               	goto	l198
  3210  009B                     u800:	
  3211  009B                     l201:	
  3212  009B  0008               	return
  3213  009C                     __end_of_I2C_Master_Wait:	
  3214                           
  3215                           	psect	text13
  3216  05C9                     __ptext13:	
  3217 ;; *************** function _FOTORESIS *****************
  3218 ;; Defined at:
  3219 ;;		line 202 in file "LibreriaLCD.c"
  3220 ;; Parameters:    Size  Location     Type
  3221 ;;  result          1    wreg     unsigned char 
  3222 ;; Auto vars:     Size  Location     Type
  3223 ;;  result          1   22[BANK0 ] unsigned char 
  3224 ;;  i               2   20[BANK0 ] int 
  3225 ;;  numero          6    9[BANK0 ] int [3]
  3226 ;;  coordenada      1   24[BANK0 ] unsigned char 
  3227 ;;  valor           1   23[BANK0 ] unsigned char 
  3228 ;;  centesimas      1   17[BANK0 ] unsigned char 
  3229 ;;  decimas         1   16[BANK0 ] unsigned char 
  3230 ;;  unidades        1   15[BANK0 ] unsigned char 
  3231 ;; Return value:  Size  Location     Type
  3232 ;;                  1    wreg      void 
  3233 ;; Registers used:
  3234 ;;		wreg, fsr0l, fsr0h, status,2, status,0, btemp+1, pclath, cstack
  3235 ;; Tracked objects:
  3236 ;;		On entry : 0/0
  3237 ;;		On exit  : 0/0
  3238 ;;		Unchanged: 0/0
  3239 ;; Data sizes:     COMMON   BANK0   BANK1   BANK3   BANK2
  3240 ;;      Params:         0       0       0       0       0
  3241 ;;      Locals:         0      16       0       0       0
  3242 ;;      Temps:          0       5       0       0       0
  3243 ;;      Totals:         0      21       0       0       0
  3244 ;;Total ram usage:       21 bytes
  3245 ;; Hardware stack levels used:    1
  3246 ;; Hardware stack levels required when called:    5
  3247 ;; This function calls:
  3248 ;;		___awdiv
  3249 ;;		___awmod
  3250 ;;		_lcddirection
  3251 ;; This function is called by:
  3252 ;;		_main
  3253 ;; This function uses a non-reentrant model
  3254 ;;
  3255                           
  3256                           
  3257                           ;psect for function _FOTORESIS
  3258  05C9                     _FOTORESIS:	
  3259                           
  3260                           ;incstack = 0
  3261                           ; Regs used in _FOTORESIS: [wreg-fsr0h+status,2+status,0+btemp+1+pclath+cstack]
  3262                           ;FOTORESIS@result stored from wreg
  3263  05C9  1283               	bcf	3,5	;RP0=0, select bank0
  3264  05CA  1303               	bcf	3,6	;RP1=0, select bank0
  3265  05CB  00B6               	movwf	FOTORESIS@result
  3266  05CC                     l1757:	
  3267                           
  3268                           ;LibreriaLCD.c: 203:     if (result>=250){result = 250;}
  3269  05CC  30FA               	movlw	250
  3270  05CD  0236               	subwf	FOTORESIS@result,w
  3271  05CE  1C03               	skipc
  3272  05CF  2DD1               	goto	u1171
  3273  05D0  2DD2               	goto	u1170
  3274  05D1                     u1171:	
  3275  05D1  2DD6               	goto	l1761
  3276  05D2                     u1170:	
  3277  05D2                     l1759:	
  3278  05D2  30FA               	movlw	250
  3279  05D3  00A4               	movwf	??_FOTORESIS
  3280  05D4  0824               	movf	??_FOTORESIS,w
  3281  05D5  00B6               	movwf	FOTORESIS@result
  3282  05D6                     l1761:	
  3283  05D6                     l1763:	
  3284                           
  3285                           ;LibreriaLCD.c: 205:     uint8_t coordenada = 0;
  3286  05D6  01B8               	clrf	FOTORESIS@coordenada
  3287  05D7                     l1765:	
  3288                           
  3289                           ;LibreriaLCD.c: 206:     uint8_t unidades = (result - (result % 50))/50;
  3290  05D7  3032               	movlw	50
  3291  05D8  00F7               	movwf	___awdiv@divisor
  3292  05D9  3000               	movlw	0
  3293  05DA  00F8               	movwf	___awdiv@divisor+1
  3294  05DB  3032               	movlw	50
  3295  05DC  00F0               	movwf	___awmod@divisor
  3296  05DD  3000               	movlw	0
  3297  05DE  00F1               	movwf	___awmod@divisor+1
  3298  05DF  0836               	movf	FOTORESIS@result,w
  3299  05E0  00A4               	movwf	??_FOTORESIS
  3300  05E1  01A5               	clrf	??_FOTORESIS+1
  3301  05E2  0824               	movf	??_FOTORESIS,w
  3302  05E3  00F2               	movwf	___awmod@dividend
  3303  05E4  0825               	movf	??_FOTORESIS+1,w
  3304  05E5  00F3               	movwf	___awmod@dividend+1
  3305  05E6  120A  158A  2741  120A  118A  	fcall	___awmod
  3306  05EB  1283               	bcf	3,5	;RP0=0, select bank0
  3307  05EC  1303               	bcf	3,6	;RP1=0, select bank0
  3308  05ED  0836               	movf	FOTORESIS@result,w
  3309  05EE  00A6               	movwf	??_FOTORESIS+2
  3310  05EF  0870               	movf	?___awmod,w
  3311  05F0  0226               	subwf	??_FOTORESIS+2,w
  3312  05F1  00F9               	movwf	___awdiv@dividend
  3313  05F2  0971               	comf	?___awmod+1,w
  3314  05F3  1803               	skipnc
  3315  05F4  3E01               	addlw	1
  3316  05F5  00FA               	movwf	___awdiv@dividend+1
  3317  05F6  120A  118A  209C  120A  118A  	fcall	___awdiv
  3318  05FB  0877               	movf	?___awdiv,w
  3319  05FC  1283               	bcf	3,5	;RP0=0, select bank0
  3320  05FD  1303               	bcf	3,6	;RP1=0, select bank0
  3321  05FE  00A7               	movwf	??_FOTORESIS+3
  3322  05FF  0827               	movf	??_FOTORESIS+3,w
  3323  0600  00AF               	movwf	FOTORESIS@unidades
  3324  0601                     l1767:	
  3325                           
  3326                           ;LibreriaLCD.c: 207:     uint8_t decimas = ((result %50) -((result %50)%5))/5;
  3327  0601  0836               	movf	FOTORESIS@result,w
  3328  0602  00A4               	movwf	??_FOTORESIS
  3329  0603  01A5               	clrf	??_FOTORESIS+1
  3330  0604  0824               	movf	??_FOTORESIS,w
  3331  0605  00F2               	movwf	___awmod@dividend
  3332  0606  0825               	movf	??_FOTORESIS+1,w
  3333  0607  00F3               	movwf	___awmod@dividend+1
  3334  0608  3032               	movlw	50
  3335  0609  00F0               	movwf	___awmod@divisor
  3336  060A  3000               	movlw	0
  3337  060B  00F1               	movwf	___awmod@divisor+1
  3338  060C  120A  158A  2741  120A  118A  	fcall	___awmod
  3339  0611  0871               	movf	?___awmod+1,w
  3340  0612  1283               	bcf	3,5	;RP0=0, select bank0
  3341  0613  1303               	bcf	3,6	;RP1=0, select bank0
  3342  0614  00B3               	movwf	_FOTORESIS$952+1
  3343  0615  0870               	movf	?___awmod,w
  3344  0616  00B2               	movwf	_FOTORESIS$952
  3345  0617                     l1769:	
  3346                           
  3347                           ;LibreriaLCD.c: 207:     uint8_t decimas = ((result %50) -((result %50)%5))/5;
  3348  0617  3005               	movlw	5
  3349  0618  00F7               	movwf	___awdiv@divisor
  3350  0619  3000               	movlw	0
  3351  061A  00F8               	movwf	___awdiv@divisor+1
  3352  061B  3032               	movlw	50
  3353  061C  00F0               	movwf	___awmod@divisor
  3354  061D  3000               	movlw	0
  3355  061E  00F1               	movwf	___awmod@divisor+1
  3356  061F  0836               	movf	FOTORESIS@result,w
  3357  0620  00A4               	movwf	??_FOTORESIS
  3358  0621  01A5               	clrf	??_FOTORESIS+1
  3359  0622  0824               	movf	??_FOTORESIS,w
  3360  0623  00F2               	movwf	___awmod@dividend
  3361  0624  0825               	movf	??_FOTORESIS+1,w
  3362  0625  00F3               	movwf	___awmod@dividend+1
  3363  0626  120A  158A  2741  120A  118A  	fcall	___awmod
  3364  062B  0870               	movf	?___awmod,w
  3365  062C  1283               	bcf	3,5	;RP0=0, select bank0
  3366  062D  1303               	bcf	3,6	;RP1=0, select bank0
  3367  062E  00A6               	movwf	??_FOTORESIS+2
  3368  062F  0871               	movf	?___awmod+1,w
  3369  0630  00A7               	movwf	??_FOTORESIS+3
  3370  0631  3005               	movlw	5
  3371  0632  00F0               	movwf	___awmod@divisor
  3372  0633  3000               	movlw	0
  3373  0634  00F1               	movwf	___awmod@divisor+1
  3374  0635  0833               	movf	_FOTORESIS$952+1,w
  3375  0636  00F3               	movwf	___awmod@dividend+1
  3376  0637  0832               	movf	_FOTORESIS$952,w
  3377  0638  00F2               	movwf	___awmod@dividend
  3378  0639  120A  158A  2741  120A  118A  	fcall	___awmod
  3379  063E  0870               	movf	?___awmod,w
  3380  063F  1283               	bcf	3,5	;RP0=0, select bank0
  3381  0640  1303               	bcf	3,6	;RP1=0, select bank0
  3382  0641  0226               	subwf	??_FOTORESIS+2,w
  3383  0642  00F9               	movwf	___awdiv@dividend
  3384  0643  0871               	movf	?___awmod+1,w
  3385  0644  1C03               	skipc
  3386  0645  0A71               	incf	?___awmod+1,w
  3387  0646  0227               	subwf	??_FOTORESIS+3,w
  3388  0647  00FA               	movwf	___awdiv@dividend+1
  3389  0648  120A  118A  209C  120A  118A  	fcall	___awdiv
  3390  064D  0877               	movf	?___awdiv,w
  3391  064E  1283               	bcf	3,5	;RP0=0, select bank0
  3392  064F  1303               	bcf	3,6	;RP1=0, select bank0
  3393  0650  00A8               	movwf	??_FOTORESIS+4
  3394  0651  0828               	movf	??_FOTORESIS+4,w
  3395  0652  00B0               	movwf	FOTORESIS@decimas
  3396  0653                     l1771:	
  3397                           
  3398                           ;LibreriaLCD.c: 208:     uint8_t centesimas = (((result %50)%5) -(((result %50)%5)%1))*2
      +                          ;
  3399  0653  0836               	movf	FOTORESIS@result,w
  3400  0654  00A4               	movwf	??_FOTORESIS
  3401  0655  01A5               	clrf	??_FOTORESIS+1
  3402  0656  0824               	movf	??_FOTORESIS,w
  3403  0657  00F2               	movwf	___awmod@dividend
  3404  0658  0825               	movf	??_FOTORESIS+1,w
  3405  0659  00F3               	movwf	___awmod@dividend+1
  3406  065A  3032               	movlw	50
  3407  065B  00F0               	movwf	___awmod@divisor
  3408  065C  3000               	movlw	0
  3409  065D  00F1               	movwf	___awmod@divisor+1
  3410  065E  120A  158A  2741  120A  118A  	fcall	___awmod
  3411  0663  0871               	movf	?___awmod+1,w
  3412  0664  1283               	bcf	3,5	;RP0=0, select bank0
  3413  0665  1303               	bcf	3,6	;RP1=0, select bank0
  3414  0666  00B3               	movwf	_FOTORESIS$952+1
  3415  0667  0870               	movf	?___awmod,w
  3416  0668  00B2               	movwf	_FOTORESIS$952
  3417  0669                     l1773:	
  3418                           
  3419                           ;LibreriaLCD.c: 208:     uint8_t centesimas = (((result %50)%5) -(((result %50)%5)%1))*2
      +                          ;
  3420  0669  3005               	movlw	5
  3421  066A  00F0               	movwf	___awmod@divisor
  3422  066B  3000               	movlw	0
  3423  066C  00F1               	movwf	___awmod@divisor+1
  3424  066D  0833               	movf	_FOTORESIS$952+1,w
  3425  066E  00F3               	movwf	___awmod@dividend+1
  3426  066F  0832               	movf	_FOTORESIS$952,w
  3427  0670  00F2               	movwf	___awmod@dividend
  3428  0671  120A  158A  2741  120A  118A  	fcall	___awmod
  3429  0676  0870               	movf	?___awmod,w
  3430  0677  1283               	bcf	3,5	;RP0=0, select bank0
  3431  0678  1303               	bcf	3,6	;RP1=0, select bank0
  3432  0679  00A4               	movwf	??_FOTORESIS
  3433  067A  0724               	addwf	??_FOTORESIS,w
  3434  067B  00A5               	movwf	??_FOTORESIS+1
  3435  067C  0825               	movf	??_FOTORESIS+1,w
  3436  067D  00B1               	movwf	FOTORESIS@centesimas
  3437  067E                     l1775:	
  3438                           
  3439                           ;LibreriaLCD.c: 209:     int numero[] = {unidades,decimas,centesimas};
  3440  067E  3029               	movlw	FOTORESIS@numero& (0+255)
  3441  067F  0084               	movwf	4
  3442  0680  3006               	movlw	6
  3443  0681  00FF               	movwf	btemp+1
  3444  0682                     u1180:	
  3445  0682  1383               	bcf	3,7	;select IRP bank0
  3446  0683  0180               	clrf	0
  3447  0684  0A84               	incf	4,f
  3448  0685  0BFF               	decfsz	btemp+1,f
  3449  0686  2E82               	goto	u1180
  3450  0687                     l1777:	
  3451  0687  082F               	movf	FOTORESIS@unidades,w
  3452  0688  00A4               	movwf	??_FOTORESIS
  3453  0689  01A5               	clrf	??_FOTORESIS+1
  3454  068A  0824               	movf	??_FOTORESIS,w
  3455  068B  00A9               	movwf	FOTORESIS@numero
  3456  068C  0825               	movf	??_FOTORESIS+1,w
  3457  068D  00AA               	movwf	FOTORESIS@numero+1
  3458  068E                     l1779:	
  3459  068E  0830               	movf	FOTORESIS@decimas,w
  3460  068F  00A4               	movwf	??_FOTORESIS
  3461  0690  01A5               	clrf	??_FOTORESIS+1
  3462  0691  0824               	movf	??_FOTORESIS,w
  3463  0692  00AB               	movwf	FOTORESIS@numero+2
  3464  0693  0825               	movf	??_FOTORESIS+1,w
  3465  0694  00AC               	movwf	FOTORESIS@numero+3
  3466  0695                     l1781:	
  3467  0695  0831               	movf	FOTORESIS@centesimas,w
  3468  0696  00A4               	movwf	??_FOTORESIS
  3469  0697  01A5               	clrf	??_FOTORESIS+1
  3470  0698  0824               	movf	??_FOTORESIS,w
  3471  0699  00AD               	movwf	FOTORESIS@numero+4
  3472  069A  0825               	movf	??_FOTORESIS+1,w
  3473  069B  00AE               	movwf	FOTORESIS@numero+5
  3474  069C                     l1783:	
  3475                           
  3476                           ;LibreriaLCD.c: 210:     for (int i=0; i<3;i++){
  3477  069C  01B4               	clrf	FOTORESIS@i
  3478  069D  01B5               	clrf	FOTORESIS@i+1
  3479  069E                     l1789:	
  3480                           
  3481                           ;LibreriaLCD.c: 211:         valor = numero[i];
  3482  069E  1283               	bcf	3,5	;RP0=0, select bank0
  3483  069F  1303               	bcf	3,6	;RP1=0, select bank0
  3484  06A0  0834               	movf	FOTORESIS@i,w
  3485  06A1  00A4               	movwf	??_FOTORESIS
  3486  06A2  0724               	addwf	??_FOTORESIS,w
  3487  06A3  3E29               	addlw	(low (FOTORESIS@numero| 0))& (0+255)
  3488  06A4  0084               	movwf	4
  3489  06A5  1383               	bcf	3,7	;select IRP bank0
  3490  06A6  0800               	movf	0,w
  3491  06A7  00A5               	movwf	??_FOTORESIS+1
  3492  06A8  0825               	movf	??_FOTORESIS+1,w
  3493  06A9  00B7               	movwf	FOTORESIS@valor
  3494  06AA                     l1791:	
  3495                           
  3496                           ;LibreriaLCD.c: 212:         if (i == 0) {
  3497  06AA  0834               	movf	FOTORESIS@i,w
  3498  06AB  0435               	iorwf	FOTORESIS@i+1,w
  3499  06AC  1D03               	btfss	3,2
  3500  06AD  2EAF               	goto	u1191
  3501  06AE  2EB0               	goto	u1190
  3502  06AF                     u1191:	
  3503  06AF  2EB4               	goto	l1795
  3504  06B0                     u1190:	
  3505  06B0                     l1793:	
  3506                           
  3507                           ;LibreriaLCD.c: 213:             coordenada = 11;
  3508  06B0  300B               	movlw	11
  3509  06B1  00A4               	movwf	??_FOTORESIS
  3510  06B2  0824               	movf	??_FOTORESIS,w
  3511  06B3  00B8               	movwf	FOTORESIS@coordenada
  3512  06B4                     l1795:	
  3513                           
  3514                           ;LibreriaLCD.c: 215:         if (i == 1) {
  3515  06B4  0334               	decf	FOTORESIS@i,w
  3516  06B5  0435               	iorwf	FOTORESIS@i+1,w
  3517  06B6  1D03               	btfss	3,2
  3518  06B7  2EB9               	goto	u1201
  3519  06B8  2EBA               	goto	u1200
  3520  06B9                     u1201:	
  3521  06B9  2EBE               	goto	l1799
  3522  06BA                     u1200:	
  3523  06BA                     l1797:	
  3524                           
  3525                           ;LibreriaLCD.c: 216:             coordenada = 13;
  3526  06BA  300D               	movlw	13
  3527  06BB  00A4               	movwf	??_FOTORESIS
  3528  06BC  0824               	movf	??_FOTORESIS,w
  3529  06BD  00B8               	movwf	FOTORESIS@coordenada
  3530  06BE                     l1799:	
  3531                           
  3532                           ;LibreriaLCD.c: 218:         if (i == 2) {
  3533  06BE  3002               	movlw	2
  3534  06BF  0634               	xorwf	FOTORESIS@i,w
  3535  06C0  0435               	iorwf	FOTORESIS@i+1,w
  3536  06C1  1D03               	btfss	3,2
  3537  06C2  2EC4               	goto	u1211
  3538  06C3  2EC5               	goto	u1210
  3539  06C4                     u1211:	
  3540  06C4  2EC9               	goto	l1803
  3541  06C5                     u1210:	
  3542  06C5                     l1801:	
  3543                           
  3544                           ;LibreriaLCD.c: 219:             coordenada = 14;
  3545  06C5  300E               	movlw	14
  3546  06C6  00A4               	movwf	??_FOTORESIS
  3547  06C7  0824               	movf	??_FOTORESIS,w
  3548  06C8  00B8               	movwf	FOTORESIS@coordenada
  3549  06C9                     l1803:	
  3550                           
  3551                           ;LibreriaLCD.c: 221:         if (valor == 0){
  3552  06C9  0837               	movf	FOTORESIS@valor,w
  3553  06CA  1D03               	btfss	3,2
  3554  06CB  2ECD               	goto	u1221
  3555  06CC  2ECE               	goto	u1220
  3556  06CD                     u1221:	
  3557  06CD  2EE2               	goto	l1807
  3558  06CE                     u1220:	
  3559  06CE                     l1805:	
  3560                           
  3561                           ;LibreriaLCD.c: 222:             lcddirection(coordenada,2,"0");
  3562  06CE  0838               	movf	FOTORESIS@coordenada,w
  3563  06CF  00A4               	movwf	??_FOTORESIS
  3564  06D0  01A5               	clrf	??_FOTORESIS+1
  3565  06D1  0824               	movf	??_FOTORESIS,w
  3566  06D2  00F8               	movwf	lcddirection@x
  3567  06D3  0825               	movf	??_FOTORESIS+1,w
  3568  06D4  00F9               	movwf	lcddirection@x+1
  3569  06D5  3002               	movlw	2
  3570  06D6  00FA               	movwf	lcddirection@y
  3571  06D7  3000               	movlw	0
  3572  06D8  00FB               	movwf	lcddirection@y+1
  3573  06D9  3050               	movlw	(low (((STR_7+1)-__stringbase)| (0+32768)))& (0+255)
  3574  06DA  00A6               	movwf	??_FOTORESIS+2
  3575  06DB  0826               	movf	??_FOTORESIS+2,w
  3576  06DC  00FC               	movwf	lcddirection@valor
  3577  06DD  120A  158A  2657  120A  118A  	fcall	_lcddirection
  3578  06E2                     l1807:	
  3579                           
  3580                           ;LibreriaLCD.c: 224:         if (valor == 1){
  3581  06E2  1283               	bcf	3,5	;RP0=0, select bank0
  3582  06E3  1303               	bcf	3,6	;RP1=0, select bank0
  3583  06E4  0337               	decf	FOTORESIS@valor,w
  3584  06E5  1D03               	btfss	3,2
  3585  06E6  2EE8               	goto	u1231
  3586  06E7  2EE9               	goto	u1230
  3587  06E8                     u1231:	
  3588  06E8  2EFD               	goto	l1811
  3589  06E9                     u1230:	
  3590  06E9                     l1809:	
  3591                           
  3592                           ;LibreriaLCD.c: 225:             lcddirection(coordenada,2,"1");
  3593  06E9  0838               	movf	FOTORESIS@coordenada,w
  3594  06EA  00A4               	movwf	??_FOTORESIS
  3595  06EB  01A5               	clrf	??_FOTORESIS+1
  3596  06EC  0824               	movf	??_FOTORESIS,w
  3597  06ED  00F8               	movwf	lcddirection@x
  3598  06EE  0825               	movf	??_FOTORESIS+1,w
  3599  06EF  00F9               	movwf	lcddirection@x+1
  3600  06F0  3002               	movlw	2
  3601  06F1  00FA               	movwf	lcddirection@y
  3602  06F2  3000               	movlw	0
  3603  06F3  00FB               	movwf	lcddirection@y+1
  3604  06F4  3056               	movlw	(low (((STR_8+1)-__stringbase)| (0+32768)))& (0+255)
  3605  06F5  00A6               	movwf	??_FOTORESIS+2
  3606  06F6  0826               	movf	??_FOTORESIS+2,w
  3607  06F7  00FC               	movwf	lcddirection@valor
  3608  06F8  120A  158A  2657  120A  118A  	fcall	_lcddirection
  3609  06FD                     l1811:	
  3610                           
  3611                           ;LibreriaLCD.c: 227:         if (valor == 2){
  3612  06FD  3002               	movlw	2
  3613  06FE  1283               	bcf	3,5	;RP0=0, select bank0
  3614  06FF  1303               	bcf	3,6	;RP1=0, select bank0
  3615  0700  0637               	xorwf	FOTORESIS@valor,w
  3616  0701  1D03               	btfss	3,2
  3617  0702  2F04               	goto	u1241
  3618  0703  2F05               	goto	u1240
  3619  0704                     u1241:	
  3620  0704  2F19               	goto	l1815
  3621  0705                     u1240:	
  3622  0705                     l1813:	
  3623                           
  3624                           ;LibreriaLCD.c: 228:             lcddirection(coordenada,2,"2");
  3625  0705  0838               	movf	FOTORESIS@coordenada,w
  3626  0706  00A4               	movwf	??_FOTORESIS
  3627  0707  01A5               	clrf	??_FOTORESIS+1
  3628  0708  0824               	movf	??_FOTORESIS,w
  3629  0709  00F8               	movwf	lcddirection@x
  3630  070A  0825               	movf	??_FOTORESIS+1,w
  3631  070B  00F9               	movwf	lcddirection@x+1
  3632  070C  3002               	movlw	2
  3633  070D  00FA               	movwf	lcddirection@y
  3634  070E  3000               	movlw	0
  3635  070F  00FB               	movwf	lcddirection@y+1
  3636  0710  305C               	movlw	(low (((STR_9+1)-__stringbase)| (0+32768)))& (0+255)
  3637  0711  00A6               	movwf	??_FOTORESIS+2
  3638  0712  0826               	movf	??_FOTORESIS+2,w
  3639  0713  00FC               	movwf	lcddirection@valor
  3640  0714  120A  158A  2657  120A  118A  	fcall	_lcddirection
  3641  0719                     l1815:	
  3642                           
  3643                           ;LibreriaLCD.c: 230:         if (valor == 3){
  3644  0719  3003               	movlw	3
  3645  071A  1283               	bcf	3,5	;RP0=0, select bank0
  3646  071B  1303               	bcf	3,6	;RP1=0, select bank0
  3647  071C  0637               	xorwf	FOTORESIS@valor,w
  3648  071D  1D03               	btfss	3,2
  3649  071E  2F20               	goto	u1251
  3650  071F  2F21               	goto	u1250
  3651  0720                     u1251:	
  3652  0720  2F35               	goto	l1819
  3653  0721                     u1250:	
  3654  0721                     l1817:	
  3655                           
  3656                           ;LibreriaLCD.c: 231:             lcddirection(coordenada,2,"3");
  3657  0721  0838               	movf	FOTORESIS@coordenada,w
  3658  0722  00A4               	movwf	??_FOTORESIS
  3659  0723  01A5               	clrf	??_FOTORESIS+1
  3660  0724  0824               	movf	??_FOTORESIS,w
  3661  0725  00F8               	movwf	lcddirection@x
  3662  0726  0825               	movf	??_FOTORESIS+1,w
  3663  0727  00F9               	movwf	lcddirection@x+1
  3664  0728  3002               	movlw	2
  3665  0729  00FA               	movwf	lcddirection@y
  3666  072A  3000               	movlw	0
  3667  072B  00FB               	movwf	lcddirection@y+1
  3668  072C  3062               	movlw	(low (((STR_10+1)-__stringbase)| (0+32768)))& (0+255)
  3669  072D  00A6               	movwf	??_FOTORESIS+2
  3670  072E  0826               	movf	??_FOTORESIS+2,w
  3671  072F  00FC               	movwf	lcddirection@valor
  3672  0730  120A  158A  2657  120A  118A  	fcall	_lcddirection
  3673  0735                     l1819:	
  3674                           
  3675                           ;LibreriaLCD.c: 233:         if (valor == 4){
  3676  0735  3004               	movlw	4
  3677  0736  1283               	bcf	3,5	;RP0=0, select bank0
  3678  0737  1303               	bcf	3,6	;RP1=0, select bank0
  3679  0738  0637               	xorwf	FOTORESIS@valor,w
  3680  0739  1D03               	btfss	3,2
  3681  073A  2F3C               	goto	u1261
  3682  073B  2F3D               	goto	u1260
  3683  073C                     u1261:	
  3684  073C  2F51               	goto	l1823
  3685  073D                     u1260:	
  3686  073D                     l1821:	
  3687                           
  3688                           ;LibreriaLCD.c: 234:             lcddirection(coordenada,2,"4");
  3689  073D  0838               	movf	FOTORESIS@coordenada,w
  3690  073E  00A4               	movwf	??_FOTORESIS
  3691  073F  01A5               	clrf	??_FOTORESIS+1
  3692  0740  0824               	movf	??_FOTORESIS,w
  3693  0741  00F8               	movwf	lcddirection@x
  3694  0742  0825               	movf	??_FOTORESIS+1,w
  3695  0743  00F9               	movwf	lcddirection@x+1
  3696  0744  3002               	movlw	2
  3697  0745  00FA               	movwf	lcddirection@y
  3698  0746  3000               	movlw	0
  3699  0747  00FB               	movwf	lcddirection@y+1
  3700  0748  3068               	movlw	(low (((STR_11+1)-__stringbase)| (0+32768)))& (0+255)
  3701  0749  00A6               	movwf	??_FOTORESIS+2
  3702  074A  0826               	movf	??_FOTORESIS+2,w
  3703  074B  00FC               	movwf	lcddirection@valor
  3704  074C  120A  158A  2657  120A  118A  	fcall	_lcddirection
  3705  0751                     l1823:	
  3706                           
  3707                           ;LibreriaLCD.c: 236:         if (valor == 5){
  3708  0751  3005               	movlw	5
  3709  0752  1283               	bcf	3,5	;RP0=0, select bank0
  3710  0753  1303               	bcf	3,6	;RP1=0, select bank0
  3711  0754  0637               	xorwf	FOTORESIS@valor,w
  3712  0755  1D03               	btfss	3,2
  3713  0756  2F58               	goto	u1271
  3714  0757  2F59               	goto	u1270
  3715  0758                     u1271:	
  3716  0758  2F6D               	goto	l1827
  3717  0759                     u1270:	
  3718  0759                     l1825:	
  3719                           
  3720                           ;LibreriaLCD.c: 237:             lcddirection(coordenada,2,"5");
  3721  0759  0838               	movf	FOTORESIS@coordenada,w
  3722  075A  00A4               	movwf	??_FOTORESIS
  3723  075B  01A5               	clrf	??_FOTORESIS+1
  3724  075C  0824               	movf	??_FOTORESIS,w
  3725  075D  00F8               	movwf	lcddirection@x
  3726  075E  0825               	movf	??_FOTORESIS+1,w
  3727  075F  00F9               	movwf	lcddirection@x+1
  3728  0760  3002               	movlw	2
  3729  0761  00FA               	movwf	lcddirection@y
  3730  0762  3000               	movlw	0
  3731  0763  00FB               	movwf	lcddirection@y+1
  3732  0764  306E               	movlw	(low (((STR_12+1)-__stringbase)| (0+32768)))& (0+255)
  3733  0765  00A6               	movwf	??_FOTORESIS+2
  3734  0766  0826               	movf	??_FOTORESIS+2,w
  3735  0767  00FC               	movwf	lcddirection@valor
  3736  0768  120A  158A  2657  120A  118A  	fcall	_lcddirection
  3737  076D                     l1827:	
  3738                           
  3739                           ;LibreriaLCD.c: 239:         if (valor == 6){
  3740  076D  3006               	movlw	6
  3741  076E  1283               	bcf	3,5	;RP0=0, select bank0
  3742  076F  1303               	bcf	3,6	;RP1=0, select bank0
  3743  0770  0637               	xorwf	FOTORESIS@valor,w
  3744  0771  1D03               	btfss	3,2
  3745  0772  2F74               	goto	u1281
  3746  0773  2F75               	goto	u1280
  3747  0774                     u1281:	
  3748  0774  2F89               	goto	l1831
  3749  0775                     u1280:	
  3750  0775                     l1829:	
  3751                           
  3752                           ;LibreriaLCD.c: 240:             lcddirection(coordenada,2,"6");
  3753  0775  0838               	movf	FOTORESIS@coordenada,w
  3754  0776  00A4               	movwf	??_FOTORESIS
  3755  0777  01A5               	clrf	??_FOTORESIS+1
  3756  0778  0824               	movf	??_FOTORESIS,w
  3757  0779  00F8               	movwf	lcddirection@x
  3758  077A  0825               	movf	??_FOTORESIS+1,w
  3759  077B  00F9               	movwf	lcddirection@x+1
  3760  077C  3002               	movlw	2
  3761  077D  00FA               	movwf	lcddirection@y
  3762  077E  3000               	movlw	0
  3763  077F  00FB               	movwf	lcddirection@y+1
  3764  0780  3074               	movlw	(low (((STR_13+1)-__stringbase)| (0+32768)))& (0+255)
  3765  0781  00A6               	movwf	??_FOTORESIS+2
  3766  0782  0826               	movf	??_FOTORESIS+2,w
  3767  0783  00FC               	movwf	lcddirection@valor
  3768  0784  120A  158A  2657  120A  118A  	fcall	_lcddirection
  3769  0789                     l1831:	
  3770                           
  3771                           ;LibreriaLCD.c: 242:         if (valor == 7){
  3772  0789  3007               	movlw	7
  3773  078A  1283               	bcf	3,5	;RP0=0, select bank0
  3774  078B  1303               	bcf	3,6	;RP1=0, select bank0
  3775  078C  0637               	xorwf	FOTORESIS@valor,w
  3776  078D  1D03               	btfss	3,2
  3777  078E  2F90               	goto	u1291
  3778  078F  2F91               	goto	u1290
  3779  0790                     u1291:	
  3780  0790  2FA5               	goto	l1835
  3781  0791                     u1290:	
  3782  0791                     l1833:	
  3783                           
  3784                           ;LibreriaLCD.c: 243:             lcddirection(coordenada,2,"7");
  3785  0791  0838               	movf	FOTORESIS@coordenada,w
  3786  0792  00A4               	movwf	??_FOTORESIS
  3787  0793  01A5               	clrf	??_FOTORESIS+1
  3788  0794  0824               	movf	??_FOTORESIS,w
  3789  0795  00F8               	movwf	lcddirection@x
  3790  0796  0825               	movf	??_FOTORESIS+1,w
  3791  0797  00F9               	movwf	lcddirection@x+1
  3792  0798  3002               	movlw	2
  3793  0799  00FA               	movwf	lcddirection@y
  3794  079A  3000               	movlw	0
  3795  079B  00FB               	movwf	lcddirection@y+1
  3796  079C  307A               	movlw	(low (((STR_14+1)-__stringbase)| (0+32768)))& (0+255)
  3797  079D  00A6               	movwf	??_FOTORESIS+2
  3798  079E  0826               	movf	??_FOTORESIS+2,w
  3799  079F  00FC               	movwf	lcddirection@valor
  3800  07A0  120A  158A  2657  120A  118A  	fcall	_lcddirection
  3801  07A5                     l1835:	
  3802                           
  3803                           ;LibreriaLCD.c: 245:         if (valor == 8){
  3804  07A5  3008               	movlw	8
  3805  07A6  1283               	bcf	3,5	;RP0=0, select bank0
  3806  07A7  1303               	bcf	3,6	;RP1=0, select bank0
  3807  07A8  0637               	xorwf	FOTORESIS@valor,w
  3808  07A9  1D03               	btfss	3,2
  3809  07AA  2FAC               	goto	u1301
  3810  07AB  2FAD               	goto	u1300
  3811  07AC                     u1301:	
  3812  07AC  2FC1               	goto	l1839
  3813  07AD                     u1300:	
  3814  07AD                     l1837:	
  3815                           
  3816                           ;LibreriaLCD.c: 246:             lcddirection(coordenada,2,"8");
  3817  07AD  0838               	movf	FOTORESIS@coordenada,w
  3818  07AE  00A4               	movwf	??_FOTORESIS
  3819  07AF  01A5               	clrf	??_FOTORESIS+1
  3820  07B0  0824               	movf	??_FOTORESIS,w
  3821  07B1  00F8               	movwf	lcddirection@x
  3822  07B2  0825               	movf	??_FOTORESIS+1,w
  3823  07B3  00F9               	movwf	lcddirection@x+1
  3824  07B4  3002               	movlw	2
  3825  07B5  00FA               	movwf	lcddirection@y
  3826  07B6  3000               	movlw	0
  3827  07B7  00FB               	movwf	lcddirection@y+1
  3828  07B8  307D               	movlw	(low (((STR_15+1)-__stringbase)| (0+32768)))& (0+255)
  3829  07B9  00A6               	movwf	??_FOTORESIS+2
  3830  07BA  0826               	movf	??_FOTORESIS+2,w
  3831  07BB  00FC               	movwf	lcddirection@valor
  3832  07BC  120A  158A  2657  120A  118A  	fcall	_lcddirection
  3833  07C1                     l1839:	
  3834                           
  3835                           ;LibreriaLCD.c: 248:         if (valor == 9){
  3836  07C1  3009               	movlw	9
  3837  07C2  1283               	bcf	3,5	;RP0=0, select bank0
  3838  07C3  1303               	bcf	3,6	;RP1=0, select bank0
  3839  07C4  0637               	xorwf	FOTORESIS@valor,w
  3840  07C5  1D03               	btfss	3,2
  3841  07C6  2FC8               	goto	u1311
  3842  07C7  2FC9               	goto	u1310
  3843  07C8                     u1311:	
  3844  07C8  2FDD               	goto	l1843
  3845  07C9                     u1310:	
  3846  07C9                     l1841:	
  3847                           
  3848                           ;LibreriaLCD.c: 249:             lcddirection(coordenada,2,"9");
  3849  07C9  0838               	movf	FOTORESIS@coordenada,w
  3850  07CA  00A4               	movwf	??_FOTORESIS
  3851  07CB  01A5               	clrf	??_FOTORESIS+1
  3852  07CC  0824               	movf	??_FOTORESIS,w
  3853  07CD  00F8               	movwf	lcddirection@x
  3854  07CE  0825               	movf	??_FOTORESIS+1,w
  3855  07CF  00F9               	movwf	lcddirection@x+1
  3856  07D0  3002               	movlw	2
  3857  07D1  00FA               	movwf	lcddirection@y
  3858  07D2  3000               	movlw	0
  3859  07D3  00FB               	movwf	lcddirection@y+1
  3860  07D4  3080               	movlw	(low (((STR_16+1)-__stringbase)| (0+32768)))& (0+255)
  3861  07D5  00A6               	movwf	??_FOTORESIS+2
  3862  07D6  0826               	movf	??_FOTORESIS+2,w
  3863  07D7  00FC               	movwf	lcddirection@valor
  3864  07D8  120A  158A  2657  120A  118A  	fcall	_lcddirection
  3865  07DD                     l1843:	
  3866                           
  3867                           ;LibreriaLCD.c: 251:     }
  3868  07DD  3001               	movlw	1
  3869  07DE  1283               	bcf	3,5	;RP0=0, select bank0
  3870  07DF  1303               	bcf	3,6	;RP1=0, select bank0
  3871  07E0  07B4               	addwf	FOTORESIS@i,f
  3872  07E1  1803               	skipnc
  3873  07E2  0AB5               	incf	FOTORESIS@i+1,f
  3874  07E3  3000               	movlw	0
  3875  07E4  07B5               	addwf	FOTORESIS@i+1,f
  3876  07E5                     l1845:	
  3877  07E5  0835               	movf	FOTORESIS@i+1,w
  3878  07E6  3A80               	xorlw	128
  3879  07E7  00FF               	movwf	btemp+1
  3880  07E8  3080               	movlw	128
  3881  07E9  027F               	subwf	btemp+1,w
  3882  07EA  1D03               	skipz
  3883  07EB  2FEE               	goto	u1325
  3884  07EC  3003               	movlw	3
  3885  07ED  0234               	subwf	FOTORESIS@i,w
  3886  07EE                     u1325:	
  3887  07EE  1C03               	skipc
  3888  07EF  2FF1               	goto	u1321
  3889  07F0  2FF2               	goto	u1320
  3890  07F1                     u1321:	
  3891  07F1  2E9E               	goto	l1789
  3892  07F2                     u1320:	
  3893  07F2                     l163:	
  3894  07F2  0008               	return
  3895  07F3                     __end_of_FOTORESIS:	
  3896                           
  3897                           	psect	text14
  3898  0E57                     __ptext14:	
  3899 ;; *************** function _lcddirection *****************
  3900 ;; Defined at:
  3901 ;;		line 73 in file "LibreriaLCD.c"
  3902 ;; Parameters:    Size  Location     Type
  3903 ;;  x               2    8[COMMON] int 
  3904 ;;  y               2   10[COMMON] int 
  3905 ;;  valor           1   12[COMMON] PTR unsigned char 
  3906 ;;		 -> STR_43(2), STR_42(2), STR_41(2), STR_40(2), 
  3907 ;;		 -> STR_39(2), STR_38(2), STR_37(2), STR_36(2), 
  3908 ;;		 -> STR_35(2), STR_34(2), STR_33(2), STR_32(2), 
  3909 ;;		 -> STR_31(2), STR_30(2), STR_29(2), STR_28(2), 
  3910 ;;		 -> STR_27(2), STR_26(2), STR_25(2), STR_24(2), 
  3911 ;;		 -> STR_23(3), STR_22(3), STR_21(3), STR_20(3), 
  3912 ;;		 -> STR_19(3), STR_18(3), STR_17(3), STR_16(3), 
  3913 ;;		 -> STR_15(3), STR_14(3), STR_13(3), STR_12(3), 
  3914 ;;		 -> STR_11(3), STR_10(3), STR_9(3), STR_8(3), 
  3915 ;;		 -> STR_7(3), STR_6(17), STR_5(17), STR_4(6), 
  3916 ;;		 -> STR_3(16), STR_2(6), STR_1(16), 
  3917 ;; Auto vars:     Size  Location     Type
  3918 ;;  posicion        1    0[BANK0 ] unsigned char 
  3919 ;; Return value:  Size  Location     Type
  3920 ;;                  1    wreg      void 
  3921 ;; Registers used:
  3922 ;;		wreg, fsr0l, fsr0h, status,2, status,0, btemp+1, pclath, cstack
  3923 ;; Tracked objects:
  3924 ;;		On entry : 0/0
  3925 ;;		On exit  : 0/0
  3926 ;;		Unchanged: 0/0
  3927 ;; Data sizes:     COMMON   BANK0   BANK1   BANK3   BANK2
  3928 ;;      Params:         5       0       0       0       0
  3929 ;;      Locals:         0       1       0       0       0
  3930 ;;      Temps:          1       0       0       0       0
  3931 ;;      Totals:         6       1       0       0       0
  3932 ;;Total ram usage:        7 bytes
  3933 ;; Hardware stack levels used:    1
  3934 ;; Hardware stack levels required when called:    4
  3935 ;; This function calls:
  3936 ;;		_Control
  3937 ;;		_impresion
  3938 ;; This function is called by:
  3939 ;;		_main
  3940 ;;		_LCDCONT
  3941 ;;		_POTENCIOMETRO
  3942 ;;		_FOTORESIS
  3943 ;; This function uses a non-reentrant model
  3944 ;;
  3945                           
  3946                           
  3947                           ;psect for function _lcddirection
  3948  0E57                     _lcddirection:	
  3949  0E57                     l1465:	
  3950                           ;incstack = 0
  3951                           ; Regs used in _lcddirection: [wreg-fsr0h+status,2+status,0+btemp+1+pclath+cstack]
  3952                           
  3953                           
  3954                           ;LibreriaLCD.c: 74:     char posicion;;LibreriaLCD.c: 75:     switch (y) {
  3955  0E57  2E68               	goto	l1475
  3956  0E58                     l1467:	
  3957                           
  3958                           ;LibreriaLCD.c: 77:             posicion = 0x80 + x;
  3959  0E58  0878               	movf	lcddirection@x,w
  3960  0E59  3E80               	addlw	128
  3961  0E5A  00FD               	movwf	??_lcddirection
  3962  0E5B  087D               	movf	??_lcddirection,w
  3963  0E5C  1283               	bcf	3,5	;RP0=0, select bank0
  3964  0E5D  1303               	bcf	3,6	;RP1=0, select bank0
  3965  0E5E  00A0               	movwf	lcddirection@posicion
  3966                           
  3967                           ;LibreriaLCD.c: 78:             break;
  3968  0E5F  2E75               	goto	l1477
  3969  0E60                     l1469:	
  3970                           
  3971                           ;LibreriaLCD.c: 80:             posicion = 0xC0 + x;
  3972  0E60  0878               	movf	lcddirection@x,w
  3973  0E61  3EC0               	addlw	192
  3974  0E62  00FD               	movwf	??_lcddirection
  3975  0E63  087D               	movf	??_lcddirection,w
  3976  0E64  1283               	bcf	3,5	;RP0=0, select bank0
  3977  0E65  1303               	bcf	3,6	;RP1=0, select bank0
  3978  0E66  00A0               	movwf	lcddirection@posicion
  3979                           
  3980                           ;LibreriaLCD.c: 81:             break;
  3981  0E67  2E75               	goto	l1477
  3982  0E68                     l1475:	
  3983                           
  3984                           ; Switch on 2 bytes has been partitioned into a top level switch of size 1, and 1 sub-sw
      +                          itches
  3985                           ; Switch size 1, requested type "simple"
  3986                           ; Number of cases is 1, Range of values is 0 to 0
  3987                           ; switch strategies available:
  3988                           ; Name         Instructions Cycles
  3989                           ; simple_byte            4     3 (average)
  3990                           ; direct_byte           11     8 (fixed)
  3991                           ; jumptable            260     6 (fixed)
  3992                           ;	Chosen strategy is simple_byte
  3993  0E68  087B               	movf	lcddirection@y+1,w
  3994  0E69  3A00               	xorlw	0	; case 0
  3995  0E6A  1903               	skipnz
  3996  0E6B  2E6D               	goto	l1937
  3997  0E6C  2E58               	goto	l1467
  3998  0E6D                     l1937:	
  3999                           
  4000                           ; Switch size 1, requested type "simple"
  4001                           ; Number of cases is 2, Range of values is 1 to 2
  4002                           ; switch strategies available:
  4003                           ; Name         Instructions Cycles
  4004                           ; simple_byte            7     4 (average)
  4005                           ; direct_byte           17    11 (fixed)
  4006                           ; jumptable            263     9 (fixed)
  4007                           ;	Chosen strategy is simple_byte
  4008  0E6D  087A               	movf	lcddirection@y,w
  4009  0E6E  3A01               	xorlw	1	; case 1
  4010  0E6F  1903               	skipnz
  4011  0E70  2E58               	goto	l1467
  4012  0E71  3A03               	xorlw	3	; case 2
  4013  0E72  1903               	skipnz
  4014  0E73  2E60               	goto	l1469
  4015  0E74  2E58               	goto	l1467
  4016  0E75                     l1477:	
  4017                           
  4018                           ;LibreriaLCD.c: 86:     Control (posicion);
  4019  0E75  0820               	movf	lcddirection@posicion,w
  4020  0E76  120A  158A  25C6  120A  158A  	fcall	_Control
  4021  0E7B                     l1479:	
  4022                           
  4023                           ;LibreriaLCD.c: 87:     impresion (valor);
  4024  0E7B  087C               	movf	lcddirection@valor,w
  4025  0E7C  120A  158A  2638  120A  158A  	fcall	_impresion
  4026  0E81                     l99:	
  4027  0E81  0008               	return
  4028  0E82                     __end_of_lcddirection:	
  4029                           
  4030                           	psect	text15
  4031  0E38                     __ptext15:	
  4032 ;; *************** function _impresion *****************
  4033 ;; Defined at:
  4034 ;;		line 66 in file "LibreriaLCD.c"
  4035 ;; Parameters:    Size  Location     Type
  4036 ;;  valor           1    wreg     PTR unsigned char 
  4037 ;;		 -> STR_43(2), STR_42(2), STR_41(2), STR_40(2), 
  4038 ;;		 -> STR_39(2), STR_38(2), STR_37(2), STR_36(2), 
  4039 ;;		 -> STR_35(2), STR_34(2), STR_33(2), STR_32(2), 
  4040 ;;		 -> STR_31(2), STR_30(2), STR_29(2), STR_28(2), 
  4041 ;;		 -> STR_27(2), STR_26(2), STR_25(2), STR_24(2), 
  4042 ;;		 -> STR_23(3), STR_22(3), STR_21(3), STR_20(3), 
  4043 ;;		 -> STR_19(3), STR_18(3), STR_17(3), STR_16(3), 
  4044 ;;		 -> STR_15(3), STR_14(3), STR_13(3), STR_12(3), 
  4045 ;;		 -> STR_11(3), STR_10(3), STR_9(3), STR_8(3), 
  4046 ;;		 -> STR_7(3), STR_6(17), STR_5(17), STR_4(6), 
  4047 ;;		 -> STR_3(16), STR_2(6), STR_1(16), 
  4048 ;; Auto vars:     Size  Location     Type
  4049 ;;  valor           1    7[COMMON] PTR unsigned char 
  4050 ;;		 -> STR_43(2), STR_42(2), STR_41(2), STR_40(2), 
  4051 ;;		 -> STR_39(2), STR_38(2), STR_37(2), STR_36(2), 
  4052 ;;		 -> STR_35(2), STR_34(2), STR_33(2), STR_32(2), 
  4053 ;;		 -> STR_31(2), STR_30(2), STR_29(2), STR_28(2), 
  4054 ;;		 -> STR_27(2), STR_26(2), STR_25(2), STR_24(2), 
  4055 ;;		 -> STR_23(3), STR_22(3), STR_21(3), STR_20(3), 
  4056 ;;		 -> STR_19(3), STR_18(3), STR_17(3), STR_16(3), 
  4057 ;;		 -> STR_15(3), STR_14(3), STR_13(3), STR_12(3), 
  4058 ;;		 -> STR_11(3), STR_10(3), STR_9(3), STR_8(3), 
  4059 ;;		 -> STR_7(3), STR_6(17), STR_5(17), STR_4(6), 
  4060 ;;		 -> STR_3(16), STR_2(6), STR_1(16), 
  4061 ;; Return value:  Size  Location     Type
  4062 ;;                  1    wreg      void 
  4063 ;; Registers used:
  4064 ;;		wreg, fsr0l, fsr0h, status,2, status,0, pclath, cstack
  4065 ;; Tracked objects:
  4066 ;;		On entry : 0/0
  4067 ;;		On exit  : 0/0
  4068 ;;		Unchanged: 0/0
  4069 ;; Data sizes:     COMMON   BANK0   BANK1   BANK3   BANK2
  4070 ;;      Params:         0       0       0       0       0
  4071 ;;      Locals:         1       0       0       0       0
  4072 ;;      Temps:          1       0       0       0       0
  4073 ;;      Totals:         2       0       0       0       0
  4074 ;;Total ram usage:        2 bytes
  4075 ;; Hardware stack levels used:    1
  4076 ;; Hardware stack levels required when called:    3
  4077 ;; This function calls:
  4078 ;;		_ON
  4079 ;; This function is called by:
  4080 ;;		_lcddirection
  4081 ;; This function uses a non-reentrant model
  4082 ;;
  4083                           
  4084                           
  4085                           ;psect for function _impresion
  4086  0E38                     _impresion:	
  4087                           
  4088                           ;incstack = 0
  4089                           ; Regs used in _impresion: [wreg-fsr0h+status,2+status,0+pclath+cstack]
  4090                           ;impresion@valor stored from wreg
  4091  0E38  00F7               	movwf	impresion@valor
  4092  0E39                     l1421:	
  4093                           
  4094                           ;LibreriaLCD.c: 67:     while (*valor){
  4095  0E39  2E4A               	goto	l1427
  4096  0E3A                     l1423:	
  4097                           
  4098                           ;LibreriaLCD.c: 68:         ON(*valor);
  4099  0E3A  0877               	movf	impresion@valor,w
  4100  0E3B  0084               	movwf	4
  4101  0E3C  120A  118A  2003  120A  158A  	fcall	stringdir
  4102  0E41  120A  158A  25DB  120A  158A  	fcall	_ON
  4103  0E46                     l1425:	
  4104                           
  4105                           ;LibreriaLCD.c: 69:         valor++;
  4106  0E46  3001               	movlw	1
  4107  0E47  00F6               	movwf	??_impresion
  4108  0E48  0876               	movf	??_impresion,w
  4109  0E49  07F7               	addwf	impresion@valor,f
  4110  0E4A                     l1427:	
  4111                           
  4112                           ;LibreriaLCD.c: 67:     while (*valor){
  4113  0E4A  0877               	movf	impresion@valor,w
  4114  0E4B  0084               	movwf	4
  4115  0E4C  120A  118A  2003  120A  158A  	fcall	stringdir
  4116  0E51  3A00               	xorlw	0
  4117  0E52  1D03               	skipz
  4118  0E53  2E55               	goto	u701
  4119  0E54  2E56               	goto	u700
  4120  0E55                     u701:	
  4121  0E55  2E3A               	goto	l1423
  4122  0E56                     u700:	
  4123  0E56                     l91:	
  4124  0E56  0008               	return
  4125  0E57                     __end_of_impresion:	
  4126                           
  4127                           	psect	text16
  4128  0DDB                     __ptext16:	
  4129 ;; *************** function _ON *****************
  4130 ;; Defined at:
  4131 ;;		line 44 in file "LibreriaLCD.c"
  4132 ;; Parameters:    Size  Location     Type
  4133 ;;  valor1          1    wreg     unsigned char 
  4134 ;; Auto vars:     Size  Location     Type
  4135 ;;  valor1          1    5[COMMON] unsigned char 
  4136 ;; Return value:  Size  Location     Type
  4137 ;;                  1    wreg      void 
  4138 ;; Registers used:
  4139 ;;		wreg, status,2, status,0, pclath, cstack
  4140 ;; Tracked objects:
  4141 ;;		On entry : 0/0
  4142 ;;		On exit  : 0/0
  4143 ;;		Unchanged: 0/0
  4144 ;; Data sizes:     COMMON   BANK0   BANK1   BANK3   BANK2
  4145 ;;      Params:         0       0       0       0       0
  4146 ;;      Locals:         1       0       0       0       0
  4147 ;;      Temps:          0       0       0       0       0
  4148 ;;      Totals:         1       0       0       0       0
  4149 ;;Total ram usage:        1 bytes
  4150 ;; Hardware stack levels used:    1
  4151 ;; Hardware stack levels required when called:    2
  4152 ;; This function calls:
  4153 ;;		_Tiempocontrol
  4154 ;;		_delay_us
  4155 ;; This function is called by:
  4156 ;;		_impresion
  4157 ;; This function uses a non-reentrant model
  4158 ;;
  4159                           
  4160                           
  4161                           ;psect for function _ON
  4162  0DDB                     _ON:	
  4163                           
  4164                           ;incstack = 0
  4165                           ; Regs used in _ON: [wreg+status,2+status,0+pclath+cstack]
  4166                           ;ON@valor1 stored from wreg
  4167  0DDB  00F5               	movwf	ON@valor1
  4168  0DDC                     l1405:	
  4169                           
  4170                           ;LibreriaLCD.c: 45:     PORTDbits.RD6 =1;
  4171  0DDC  1283               	bcf	3,5	;RP0=0, select bank0
  4172  0DDD  1303               	bcf	3,6	;RP1=0, select bank0
  4173  0DDE  1708               	bsf	8,6	;volatile
  4174  0DDF                     l1407:	
  4175                           
  4176                           ;LibreriaLCD.c: 46:     PORTB = valor1;
  4177  0DDF  0875               	movf	ON@valor1,w
  4178  0DE0  0086               	movwf	6	;volatile
  4179  0DE1                     l1409:	
  4180                           
  4181                           ;LibreriaLCD.c: 47:     Tiempocontrol();
  4182  0DE1  120A  158A  261F  120A  158A  	fcall	_Tiempocontrol
  4183  0DE6                     l1411:	
  4184                           
  4185                           ;LibreriaLCD.c: 48:     delay_us(50);
  4186  0DE6  3032               	movlw	50
  4187  0DE7  00F0               	movwf	delay_us@dus
  4188  0DE8  3000               	movlw	0
  4189  0DE9  00F1               	movwf	delay_us@dus+1
  4190  0DEA  120A  158A  2607  120A  158A  	fcall	_delay_us
  4191  0DEF                     l82:	
  4192  0DEF  0008               	return
  4193  0DF0                     __end_of_ON:	
  4194                           
  4195                           	psect	text17
  4196  0DC6                     __ptext17:	
  4197 ;; *************** function _Control *****************
  4198 ;; Defined at:
  4199 ;;		line 37 in file "LibreriaLCD.c"
  4200 ;; Parameters:    Size  Location     Type
  4201 ;;  valor           1    wreg     unsigned char 
  4202 ;; Auto vars:     Size  Location     Type
  4203 ;;  valor           1    7[COMMON] unsigned char 
  4204 ;; Return value:  Size  Location     Type
  4205 ;;                  1    wreg      void 
  4206 ;; Registers used:
  4207 ;;		wreg, status,2, status,0, btemp+1, pclath, cstack
  4208 ;; Tracked objects:
  4209 ;;		On entry : 0/0
  4210 ;;		On exit  : 0/0
  4211 ;;		Unchanged: 0/0
  4212 ;; Data sizes:     COMMON   BANK0   BANK1   BANK3   BANK2
  4213 ;;      Params:         0       0       0       0       0
  4214 ;;      Locals:         1       0       0       0       0
  4215 ;;      Temps:          0       0       0       0       0
  4216 ;;      Totals:         1       0       0       0       0
  4217 ;;Total ram usage:        1 bytes
  4218 ;; Hardware stack levels used:    1
  4219 ;; Hardware stack levels required when called:    2
  4220 ;; This function calls:
  4221 ;;		_Tiempocontrol
  4222 ;;		_delay_ms
  4223 ;; This function is called by:
  4224 ;;		_LCDvalue
  4225 ;;		_lcddirection
  4226 ;;		_clean
  4227 ;; This function uses a non-reentrant model
  4228 ;;
  4229                           
  4230                           
  4231                           ;psect for function _Control
  4232  0DC6                     _Control:	
  4233                           
  4234                           ;incstack = 0
  4235                           ; Regs used in _Control: [wreg+status,2+status,0+btemp+1+pclath+cstack]
  4236                           ;Control@valor stored from wreg
  4237  0DC6  00F7               	movwf	Control@valor
  4238  0DC7                     l1413:	
  4239                           
  4240                           ;LibreriaLCD.c: 38:     PORTDbits.RD6 =0;
  4241  0DC7  1283               	bcf	3,5	;RP0=0, select bank0
  4242  0DC8  1303               	bcf	3,6	;RP1=0, select bank0
  4243  0DC9  1308               	bcf	8,6	;volatile
  4244  0DCA                     l1415:	
  4245                           
  4246                           ;LibreriaLCD.c: 39:     PORTB = valor;
  4247  0DCA  0877               	movf	Control@valor,w
  4248  0DCB  0086               	movwf	6	;volatile
  4249  0DCC                     l1417:	
  4250                           
  4251                           ;LibreriaLCD.c: 40:     Tiempocontrol();
  4252  0DCC  120A  158A  261F  120A  158A  	fcall	_Tiempocontrol
  4253  0DD1                     l1419:	
  4254                           
  4255                           ;LibreriaLCD.c: 41:     delay_ms(2);
  4256  0DD1  3002               	movlw	2
  4257  0DD2  00F0               	movwf	delay_ms@dms
  4258  0DD3  3000               	movlw	0
  4259  0DD4  00F1               	movwf	delay_ms@dms+1
  4260  0DD5  120A  158A  26AE  120A  158A  	fcall	_delay_ms
  4261  0DDA                     l79:	
  4262  0DDA  0008               	return
  4263  0DDB                     __end_of_Control:	
  4264                           
  4265                           	psect	text18
  4266  0EAE                     __ptext18:	
  4267 ;; *************** function _delay_ms *****************
  4268 ;; Defined at:
  4269 ;;		line 19 in file "LibreriaLCD.c"
  4270 ;; Parameters:    Size  Location     Type
  4271 ;;  dms             2    0[COMMON] int 
  4272 ;; Auto vars:     Size  Location     Type
  4273 ;;  j               2    5[COMMON] int 
  4274 ;;  i               2    3[COMMON] int 
  4275 ;; Return value:  Size  Location     Type
  4276 ;;                  1    wreg      void 
  4277 ;; Registers used:
  4278 ;;		wreg, status,2, btemp+1
  4279 ;; Tracked objects:
  4280 ;;		On entry : 0/0
  4281 ;;		On exit  : 0/0
  4282 ;;		Unchanged: 0/0
  4283 ;; Data sizes:     COMMON   BANK0   BANK1   BANK3   BANK2
  4284 ;;      Params:         2       0       0       0       0
  4285 ;;      Locals:         4       0       0       0       0
  4286 ;;      Temps:          1       0       0       0       0
  4287 ;;      Totals:         7       0       0       0       0
  4288 ;;Total ram usage:        7 bytes
  4289 ;; Hardware stack levels used:    1
  4290 ;; This function calls:
  4291 ;;		Nothing
  4292 ;; This function is called by:
  4293 ;;		_main
  4294 ;;		_Control
  4295 ;;		_LCDvalue
  4296 ;; This function uses a non-reentrant model
  4297 ;;
  4298                           
  4299                           
  4300                           ;psect for function _delay_ms
  4301  0EAE                     _delay_ms:	
  4302  0EAE                     l1391:	
  4303                           ;incstack = 0
  4304                           ; Regs used in _delay_ms: [wreg+status,2+btemp+1]
  4305                           
  4306                           
  4307                           ;LibreriaLCD.c: 20:     for(int i = 0; i<dms; i++){
  4308  0EAE  01F3               	clrf	delay_ms@i
  4309  0EAF  01F4               	clrf	delay_ms@i+1
  4310  0EB0  2ECC               	goto	l62
  4311  0EB1                     l1393:	
  4312                           
  4313                           ;LibreriaLCD.c: 21:         for(int j = 0; j<255; j++);
  4314  0EB1  01F5               	clrf	delay_ms@j
  4315  0EB2  01F6               	clrf	delay_ms@j+1
  4316  0EB3                     l1399:	
  4317  0EB3  3001               	movlw	1
  4318  0EB4  07F5               	addwf	delay_ms@j,f
  4319  0EB5  1803               	skipnc
  4320  0EB6  0AF6               	incf	delay_ms@j+1,f
  4321  0EB7  3000               	movlw	0
  4322  0EB8  07F6               	addwf	delay_ms@j+1,f
  4323  0EB9                     l1401:	
  4324  0EB9  0876               	movf	delay_ms@j+1,w
  4325  0EBA  3A80               	xorlw	128
  4326  0EBB  00FF               	movwf	btemp+1
  4327  0EBC  3080               	movlw	128
  4328  0EBD  027F               	subwf	btemp+1,w
  4329  0EBE  1D03               	skipz
  4330  0EBF  2EC2               	goto	u685
  4331  0EC0  30FF               	movlw	255
  4332  0EC1  0275               	subwf	delay_ms@j,w
  4333  0EC2                     u685:	
  4334  0EC2  1C03               	skipc
  4335  0EC3  2EC5               	goto	u681
  4336  0EC4  2EC6               	goto	u680
  4337  0EC5                     u681:	
  4338  0EC5  2EB3               	goto	l1399
  4339  0EC6                     u680:	
  4340  0EC6                     l1403:	
  4341                           
  4342                           ;LibreriaLCD.c: 22:     }
  4343  0EC6  3001               	movlw	1
  4344  0EC7  07F3               	addwf	delay_ms@i,f
  4345  0EC8  1803               	skipnc
  4346  0EC9  0AF4               	incf	delay_ms@i+1,f
  4347  0ECA  3000               	movlw	0
  4348  0ECB  07F4               	addwf	delay_ms@i+1,f
  4349  0ECC                     l62:	
  4350  0ECC  0874               	movf	delay_ms@i+1,w
  4351  0ECD  3A80               	xorlw	128
  4352  0ECE  00F2               	movwf	??_delay_ms
  4353  0ECF  0871               	movf	delay_ms@dms+1,w
  4354  0ED0  3A80               	xorlw	128
  4355  0ED1  0272               	subwf	??_delay_ms,w
  4356  0ED2  1D03               	skipz
  4357  0ED3  2ED6               	goto	u695
  4358  0ED4  0870               	movf	delay_ms@dms,w
  4359  0ED5  0273               	subwf	delay_ms@i,w
  4360  0ED6                     u695:	
  4361  0ED6  1C03               	skipc
  4362  0ED7  2ED9               	goto	u691
  4363  0ED8  2EDA               	goto	u690
  4364  0ED9                     u691:	
  4365  0ED9  2EB1               	goto	l1393
  4366  0EDA                     u690:	
  4367  0EDA                     l67:	
  4368  0EDA  0008               	return
  4369  0EDB                     __end_of_delay_ms:	
  4370                           
  4371                           	psect	text19
  4372  0E1F                     __ptext19:	
  4373 ;; *************** function _Tiempocontrol *****************
  4374 ;; Defined at:
  4375 ;;		line 30 in file "LibreriaLCD.c"
  4376 ;; Parameters:    Size  Location     Type
  4377 ;;		None
  4378 ;; Auto vars:     Size  Location     Type
  4379 ;;		None
  4380 ;; Return value:  Size  Location     Type
  4381 ;;                  1    wreg      void 
  4382 ;; Registers used:
  4383 ;;		wreg, status,2, status,0, pclath, cstack
  4384 ;; Tracked objects:
  4385 ;;		On entry : 0/0
  4386 ;;		On exit  : 0/0
  4387 ;;		Unchanged: 0/0
  4388 ;; Data sizes:     COMMON   BANK0   BANK1   BANK3   BANK2
  4389 ;;      Params:         0       0       0       0       0
  4390 ;;      Locals:         0       0       0       0       0
  4391 ;;      Temps:          0       0       0       0       0
  4392 ;;      Totals:         0       0       0       0       0
  4393 ;;Total ram usage:        0 bytes
  4394 ;; Hardware stack levels used:    1
  4395 ;; Hardware stack levels required when called:    1
  4396 ;; This function calls:
  4397 ;;		_delay_us
  4398 ;; This function is called by:
  4399 ;;		_Control
  4400 ;;		_ON
  4401 ;; This function uses a non-reentrant model
  4402 ;;
  4403                           
  4404                           
  4405                           ;psect for function _Tiempocontrol
  4406  0E1F                     _Tiempocontrol:	
  4407  0E1F                     l1385:	
  4408                           ;incstack = 0
  4409                           ; Regs used in _Tiempocontrol: [wreg+status,2+status,0+pclath+cstack]
  4410                           
  4411                           
  4412                           ;LibreriaLCD.c: 31:     PORTDbits.RD7 = 1;
  4413  0E1F  1283               	bcf	3,5	;RP0=0, select bank0
  4414  0E20  1303               	bcf	3,6	;RP1=0, select bank0
  4415  0E21  1788               	bsf	8,7	;volatile
  4416  0E22                     l1387:	
  4417                           
  4418                           ;LibreriaLCD.c: 32:     delay_us(5);
  4419  0E22  3005               	movlw	5
  4420  0E23  00F0               	movwf	delay_us@dus
  4421  0E24  3000               	movlw	0
  4422  0E25  00F1               	movwf	delay_us@dus+1
  4423  0E26  120A  158A  2607  120A  158A  	fcall	_delay_us
  4424  0E2B                     l1389:	
  4425                           
  4426                           ;LibreriaLCD.c: 33:     PORTDbits.RD7 = 0;
  4427  0E2B  1283               	bcf	3,5	;RP0=0, select bank0
  4428  0E2C  1303               	bcf	3,6	;RP1=0, select bank0
  4429  0E2D  1388               	bcf	8,7	;volatile
  4430                           
  4431                           ;LibreriaLCD.c: 34:     delay_us(5);
  4432  0E2E  3005               	movlw	5
  4433  0E2F  00F0               	movwf	delay_us@dus
  4434  0E30  3000               	movlw	0
  4435  0E31  00F1               	movwf	delay_us@dus+1
  4436  0E32  120A  158A  2607  120A  158A  	fcall	_delay_us
  4437  0E37                     l76:	
  4438  0E37  0008               	return
  4439  0E38                     __end_of_Tiempocontrol:	
  4440                           
  4441                           	psect	text20
  4442  0E07                     __ptext20:	
  4443 ;; *************** function _delay_us *****************
  4444 ;; Defined at:
  4445 ;;		line 25 in file "LibreriaLCD.c"
  4446 ;; Parameters:    Size  Location     Type
  4447 ;;  dus             2    0[COMMON] int 
  4448 ;; Auto vars:     Size  Location     Type
  4449 ;;  i               2    3[COMMON] int 
  4450 ;; Return value:  Size  Location     Type
  4451 ;;                  1    wreg      void 
  4452 ;; Registers used:
  4453 ;;		wreg, status,2
  4454 ;; Tracked objects:
  4455 ;;		On entry : 0/0
  4456 ;;		On exit  : 0/0
  4457 ;;		Unchanged: 0/0
  4458 ;; Data sizes:     COMMON   BANK0   BANK1   BANK3   BANK2
  4459 ;;      Params:         2       0       0       0       0
  4460 ;;      Locals:         2       0       0       0       0
  4461 ;;      Temps:          1       0       0       0       0
  4462 ;;      Totals:         5       0       0       0       0
  4463 ;;Total ram usage:        5 bytes
  4464 ;; Hardware stack levels used:    1
  4465 ;; This function calls:
  4466 ;;		Nothing
  4467 ;; This function is called by:
  4468 ;;		_Tiempocontrol
  4469 ;;		_ON
  4470 ;; This function uses a non-reentrant model
  4471 ;;
  4472                           
  4473                           
  4474                           ;psect for function _delay_us
  4475  0E07                     _delay_us:	
  4476  0E07                     l1381:	
  4477                           ;incstack = 0
  4478                           ; Regs used in _delay_us: [wreg+status,2]
  4479                           
  4480                           
  4481                           ;LibreriaLCD.c: 26:     for(int i = 0; i<dus; i++);
  4482  0E07  01F3               	clrf	delay_us@i
  4483  0E08  01F4               	clrf	delay_us@i+1
  4484  0E09  2E10               	goto	l70
  4485  0E0A                     l1383:	
  4486  0E0A  3001               	movlw	1
  4487  0E0B  07F3               	addwf	delay_us@i,f
  4488  0E0C  1803               	skipnc
  4489  0E0D  0AF4               	incf	delay_us@i+1,f
  4490  0E0E  3000               	movlw	0
  4491  0E0F  07F4               	addwf	delay_us@i+1,f
  4492  0E10                     l70:	
  4493  0E10  0874               	movf	delay_us@i+1,w
  4494  0E11  3A80               	xorlw	128
  4495  0E12  00F2               	movwf	??_delay_us
  4496  0E13  0871               	movf	delay_us@dus+1,w
  4497  0E14  3A80               	xorlw	128
  4498  0E15  0272               	subwf	??_delay_us,w
  4499  0E16  1D03               	skipz
  4500  0E17  2E1A               	goto	u675
  4501  0E18  0870               	movf	delay_us@dus,w
  4502  0E19  0273               	subwf	delay_us@i,w
  4503  0E1A                     u675:	
  4504  0E1A  1C03               	skipc
  4505  0E1B  2E1D               	goto	u671
  4506  0E1C  2E1E               	goto	u670
  4507  0E1D                     u671:	
  4508  0E1D  2E0A               	goto	l1383
  4509  0E1E                     u670:	
  4510  0E1E                     l73:	
  4511  0E1E  0008               	return
  4512  0E1F                     __end_of_delay_us:	
  4513                           
  4514                           	psect	text21
  4515  0F41                     __ptext21:	
  4516 ;; *************** function ___awmod *****************
  4517 ;; Defined at:
  4518 ;;		line 5 in file "C:\Program Files (x86)\Microchip\xc8\v2.10\pic\sources\c90\common\awmod.c"
  4519 ;; Parameters:    Size  Location     Type
  4520 ;;  divisor         2    0[COMMON] int 
  4521 ;;  dividend        2    2[COMMON] int 
  4522 ;; Auto vars:     Size  Location     Type
  4523 ;;  sign            1    6[COMMON] unsigned char 
  4524 ;;  counter         1    5[COMMON] unsigned char 
  4525 ;; Return value:  Size  Location     Type
  4526 ;;                  2    0[COMMON] int 
  4527 ;; Registers used:
  4528 ;;		wreg, status,2, status,0
  4529 ;; Tracked objects:
  4530 ;;		On entry : 0/0
  4531 ;;		On exit  : 0/0
  4532 ;;		Unchanged: 0/0
  4533 ;; Data sizes:     COMMON   BANK0   BANK1   BANK3   BANK2
  4534 ;;      Params:         4       0       0       0       0
  4535 ;;      Locals:         2       0       0       0       0
  4536 ;;      Temps:          1       0       0       0       0
  4537 ;;      Totals:         7       0       0       0       0
  4538 ;;Total ram usage:        7 bytes
  4539 ;; Hardware stack levels used:    1
  4540 ;; This function calls:
  4541 ;;		Nothing
  4542 ;; This function is called by:
  4543 ;;		_POTENCIOMETRO
  4544 ;;		_FOTORESIS
  4545 ;; This function uses a non-reentrant model
  4546 ;;
  4547                           
  4548                           
  4549                           ;psect for function ___awmod
  4550  0F41                     ___awmod:	
  4551  0F41                     l1533:	
  4552                           ;incstack = 0
  4553                           ; Regs used in ___awmod: [wreg+status,2+status,0]
  4554                           
  4555  0F41  01F6               	clrf	___awmod@sign
  4556  0F42                     l1535:	
  4557  0F42  1FF3               	btfss	___awmod@dividend+1,7
  4558  0F43  2F45               	goto	u911
  4559  0F44  2F46               	goto	u910
  4560  0F45                     u911:	
  4561  0F45  2F4D               	goto	l1541
  4562  0F46                     u910:	
  4563  0F46                     l1537:	
  4564  0F46  09F2               	comf	___awmod@dividend,f
  4565  0F47  09F3               	comf	___awmod@dividend+1,f
  4566  0F48  0AF2               	incf	___awmod@dividend,f
  4567  0F49  1903               	skipnz
  4568  0F4A  0AF3               	incf	___awmod@dividend+1,f
  4569  0F4B                     l1539:	
  4570  0F4B  01F6               	clrf	___awmod@sign
  4571  0F4C  0AF6               	incf	___awmod@sign,f
  4572  0F4D                     l1541:	
  4573  0F4D  1FF1               	btfss	___awmod@divisor+1,7
  4574  0F4E  2F50               	goto	u921
  4575  0F4F  2F51               	goto	u920
  4576  0F50                     u921:	
  4577  0F50  2F56               	goto	l1545
  4578  0F51                     u920:	
  4579  0F51                     l1543:	
  4580  0F51  09F0               	comf	___awmod@divisor,f
  4581  0F52  09F1               	comf	___awmod@divisor+1,f
  4582  0F53  0AF0               	incf	___awmod@divisor,f
  4583  0F54  1903               	skipnz
  4584  0F55  0AF1               	incf	___awmod@divisor+1,f
  4585  0F56                     l1545:	
  4586  0F56  0870               	movf	___awmod@divisor,w
  4587  0F57  0471               	iorwf	___awmod@divisor+1,w
  4588  0F58  1903               	btfsc	3,2
  4589  0F59  2F5B               	goto	u931
  4590  0F5A  2F5C               	goto	u930
  4591  0F5B                     u931:	
  4592  0F5B  2F8B               	goto	l1563
  4593  0F5C                     u930:	
  4594  0F5C                     l1547:	
  4595  0F5C  01F5               	clrf	___awmod@counter
  4596  0F5D  0AF5               	incf	___awmod@counter,f
  4597  0F5E  2F6A               	goto	l1553
  4598  0F5F                     l1549:	
  4599  0F5F  3001               	movlw	1
  4600  0F60                     u945:	
  4601  0F60  1003               	clrc
  4602  0F61  0DF0               	rlf	___awmod@divisor,f
  4603  0F62  0DF1               	rlf	___awmod@divisor+1,f
  4604  0F63  3EFF               	addlw	-1
  4605  0F64  1D03               	skipz
  4606  0F65  2F60               	goto	u945
  4607  0F66                     l1551:	
  4608  0F66  3001               	movlw	1
  4609  0F67  00F4               	movwf	??___awmod
  4610  0F68  0874               	movf	??___awmod,w
  4611  0F69  07F5               	addwf	___awmod@counter,f
  4612  0F6A                     l1553:	
  4613  0F6A  1FF1               	btfss	___awmod@divisor+1,7
  4614  0F6B  2F6D               	goto	u951
  4615  0F6C  2F6E               	goto	u950
  4616  0F6D                     u951:	
  4617  0F6D  2F5F               	goto	l1549
  4618  0F6E                     u950:	
  4619  0F6E                     l1555:	
  4620  0F6E  0871               	movf	___awmod@divisor+1,w
  4621  0F6F  0273               	subwf	___awmod@dividend+1,w
  4622  0F70  1D03               	skipz
  4623  0F71  2F74               	goto	u965
  4624  0F72  0870               	movf	___awmod@divisor,w
  4625  0F73  0272               	subwf	___awmod@dividend,w
  4626  0F74                     u965:	
  4627  0F74  1C03               	skipc
  4628  0F75  2F77               	goto	u961
  4629  0F76  2F78               	goto	u960
  4630  0F77                     u961:	
  4631  0F77  2F7E               	goto	l1559
  4632  0F78                     u960:	
  4633  0F78                     l1557:	
  4634  0F78  0870               	movf	___awmod@divisor,w
  4635  0F79  02F2               	subwf	___awmod@dividend,f
  4636  0F7A  0871               	movf	___awmod@divisor+1,w
  4637  0F7B  1C03               	skipc
  4638  0F7C  03F3               	decf	___awmod@dividend+1,f
  4639  0F7D  02F3               	subwf	___awmod@dividend+1,f
  4640  0F7E                     l1559:	
  4641  0F7E  3001               	movlw	1
  4642  0F7F                     u975:	
  4643  0F7F  1003               	clrc
  4644  0F80  0CF1               	rrf	___awmod@divisor+1,f
  4645  0F81  0CF0               	rrf	___awmod@divisor,f
  4646  0F82  3EFF               	addlw	-1
  4647  0F83  1D03               	skipz
  4648  0F84  2F7F               	goto	u975
  4649  0F85                     l1561:	
  4650  0F85  3001               	movlw	1
  4651  0F86  02F5               	subwf	___awmod@counter,f
  4652  0F87  1D03               	btfss	3,2
  4653  0F88  2F8A               	goto	u981
  4654  0F89  2F8B               	goto	u980
  4655  0F8A                     u981:	
  4656  0F8A  2F6E               	goto	l1555
  4657  0F8B                     u980:	
  4658  0F8B                     l1563:	
  4659  0F8B  0876               	movf	___awmod@sign,w
  4660  0F8C  1903               	btfsc	3,2
  4661  0F8D  2F8F               	goto	u991
  4662  0F8E  2F90               	goto	u990
  4663  0F8F                     u991:	
  4664  0F8F  2F95               	goto	l1567
  4665  0F90                     u990:	
  4666  0F90                     l1565:	
  4667  0F90  09F2               	comf	___awmod@dividend,f
  4668  0F91  09F3               	comf	___awmod@dividend+1,f
  4669  0F92  0AF2               	incf	___awmod@dividend,f
  4670  0F93  1903               	skipnz
  4671  0F94  0AF3               	incf	___awmod@dividend+1,f
  4672  0F95                     l1567:	
  4673  0F95  0873               	movf	___awmod@dividend+1,w
  4674  0F96  00F1               	movwf	?___awmod+1
  4675  0F97  0872               	movf	___awmod@dividend,w
  4676  0F98  00F0               	movwf	?___awmod
  4677  0F99                     l473:	
  4678  0F99  0008               	return
  4679  0F9A                     __end_of___awmod:	
  4680                           
  4681                           	psect	text22
  4682  009C                     __ptext22:	
  4683 ;; *************** function ___awdiv *****************
  4684 ;; Defined at:
  4685 ;;		line 5 in file "C:\Program Files (x86)\Microchip\xc8\v2.10\pic\sources\c90\common\awdiv.c"
  4686 ;; Parameters:    Size  Location     Type
  4687 ;;  divisor         2    7[COMMON] int 
  4688 ;;  dividend        2    9[COMMON] int 
  4689 ;; Auto vars:     Size  Location     Type
  4690 ;;  quotient        2    2[BANK0 ] int 
  4691 ;;  sign            1    1[BANK0 ] unsigned char 
  4692 ;;  counter         1    0[BANK0 ] unsigned char 
  4693 ;; Return value:  Size  Location     Type
  4694 ;;                  2    7[COMMON] int 
  4695 ;; Registers used:
  4696 ;;		wreg, status,2, status,0
  4697 ;; Tracked objects:
  4698 ;;		On entry : 0/0
  4699 ;;		On exit  : 0/0
  4700 ;;		Unchanged: 0/0
  4701 ;; Data sizes:     COMMON   BANK0   BANK1   BANK3   BANK2
  4702 ;;      Params:         4       0       0       0       0
  4703 ;;      Locals:         0       4       0       0       0
  4704 ;;      Temps:          1       0       0       0       0
  4705 ;;      Totals:         5       4       0       0       0
  4706 ;;Total ram usage:        9 bytes
  4707 ;; Hardware stack levels used:    1
  4708 ;; This function calls:
  4709 ;;		Nothing
  4710 ;; This function is called by:
  4711 ;;		_POTENCIOMETRO
  4712 ;;		_FOTORESIS
  4713 ;; This function uses a non-reentrant model
  4714 ;;
  4715                           
  4716                           
  4717                           ;psect for function ___awdiv
  4718  009C                     ___awdiv:	
  4719  009C                     l1489:	
  4720                           ;incstack = 0
  4721                           ; Regs used in ___awdiv: [wreg+status,2+status,0]
  4722                           
  4723  009C  1283               	bcf	3,5	;RP0=0, select bank0
  4724  009D  1303               	bcf	3,6	;RP1=0, select bank0
  4725  009E  01A1               	clrf	___awdiv@sign
  4726  009F                     l1491:	
  4727  009F  1FF8               	btfss	___awdiv@divisor+1,7
  4728  00A0  28A2               	goto	u811
  4729  00A1  28A3               	goto	u810
  4730  00A2                     u811:	
  4731  00A2  28AA               	goto	l1497
  4732  00A3                     u810:	
  4733  00A3                     l1493:	
  4734  00A3  09F7               	comf	___awdiv@divisor,f
  4735  00A4  09F8               	comf	___awdiv@divisor+1,f
  4736  00A5  0AF7               	incf	___awdiv@divisor,f
  4737  00A6  1903               	skipnz
  4738  00A7  0AF8               	incf	___awdiv@divisor+1,f
  4739  00A8                     l1495:	
  4740  00A8  01A1               	clrf	___awdiv@sign
  4741  00A9  0AA1               	incf	___awdiv@sign,f
  4742  00AA                     l1497:	
  4743  00AA  1FFA               	btfss	___awdiv@dividend+1,7
  4744  00AB  28AD               	goto	u821
  4745  00AC  28AE               	goto	u820
  4746  00AD                     u821:	
  4747  00AD  28B7               	goto	l1503
  4748  00AE                     u820:	
  4749  00AE                     l1499:	
  4750  00AE  09F9               	comf	___awdiv@dividend,f
  4751  00AF  09FA               	comf	___awdiv@dividend+1,f
  4752  00B0  0AF9               	incf	___awdiv@dividend,f
  4753  00B1  1903               	skipnz
  4754  00B2  0AFA               	incf	___awdiv@dividend+1,f
  4755  00B3                     l1501:	
  4756  00B3  3001               	movlw	1
  4757  00B4  00FB               	movwf	??___awdiv
  4758  00B5  087B               	movf	??___awdiv,w
  4759  00B6  06A1               	xorwf	___awdiv@sign,f
  4760  00B7                     l1503:	
  4761  00B7  01A2               	clrf	___awdiv@quotient
  4762  00B8  01A3               	clrf	___awdiv@quotient+1
  4763  00B9                     l1505:	
  4764  00B9  0877               	movf	___awdiv@divisor,w
  4765  00BA  0478               	iorwf	___awdiv@divisor+1,w
  4766  00BB  1903               	btfsc	3,2
  4767  00BC  28BE               	goto	u831
  4768  00BD  28BF               	goto	u830
  4769  00BE                     u831:	
  4770  00BE  28F6               	goto	l1525
  4771  00BF                     u830:	
  4772  00BF                     l1507:	
  4773  00BF  01A0               	clrf	___awdiv@counter
  4774  00C0  0AA0               	incf	___awdiv@counter,f
  4775  00C1  28CD               	goto	l1513
  4776  00C2                     l1509:	
  4777  00C2  3001               	movlw	1
  4778  00C3                     u845:	
  4779  00C3  1003               	clrc
  4780  00C4  0DF7               	rlf	___awdiv@divisor,f
  4781  00C5  0DF8               	rlf	___awdiv@divisor+1,f
  4782  00C6  3EFF               	addlw	-1
  4783  00C7  1D03               	skipz
  4784  00C8  28C3               	goto	u845
  4785  00C9                     l1511:	
  4786  00C9  3001               	movlw	1
  4787  00CA  00FB               	movwf	??___awdiv
  4788  00CB  087B               	movf	??___awdiv,w
  4789  00CC  07A0               	addwf	___awdiv@counter,f
  4790  00CD                     l1513:	
  4791  00CD  1FF8               	btfss	___awdiv@divisor+1,7
  4792  00CE  28D0               	goto	u851
  4793  00CF  28D1               	goto	u850
  4794  00D0                     u851:	
  4795  00D0  28C2               	goto	l1509
  4796  00D1                     u850:	
  4797  00D1                     l1515:	
  4798  00D1  3001               	movlw	1
  4799  00D2                     u865:	
  4800  00D2  1003               	clrc
  4801  00D3  0DA2               	rlf	___awdiv@quotient,f
  4802  00D4  0DA3               	rlf	___awdiv@quotient+1,f
  4803  00D5  3EFF               	addlw	-1
  4804  00D6  1D03               	skipz
  4805  00D7  28D2               	goto	u865
  4806  00D8  0878               	movf	___awdiv@divisor+1,w
  4807  00D9  027A               	subwf	___awdiv@dividend+1,w
  4808  00DA  1D03               	skipz
  4809  00DB  28DE               	goto	u875
  4810  00DC  0877               	movf	___awdiv@divisor,w
  4811  00DD  0279               	subwf	___awdiv@dividend,w
  4812  00DE                     u875:	
  4813  00DE  1C03               	skipc
  4814  00DF  28E1               	goto	u871
  4815  00E0  28E2               	goto	u870
  4816  00E1                     u871:	
  4817  00E1  28E9               	goto	l1521
  4818  00E2                     u870:	
  4819  00E2                     l1517:	
  4820  00E2  0877               	movf	___awdiv@divisor,w
  4821  00E3  02F9               	subwf	___awdiv@dividend,f
  4822  00E4  0878               	movf	___awdiv@divisor+1,w
  4823  00E5  1C03               	skipc
  4824  00E6  03FA               	decf	___awdiv@dividend+1,f
  4825  00E7  02FA               	subwf	___awdiv@dividend+1,f
  4826  00E8                     l1519:	
  4827  00E8  1422               	bsf	___awdiv@quotient,0
  4828  00E9                     l1521:	
  4829  00E9  3001               	movlw	1
  4830  00EA                     u885:	
  4831  00EA  1003               	clrc
  4832  00EB  0CF8               	rrf	___awdiv@divisor+1,f
  4833  00EC  0CF7               	rrf	___awdiv@divisor,f
  4834  00ED  3EFF               	addlw	-1
  4835  00EE  1D03               	skipz
  4836  00EF  28EA               	goto	u885
  4837  00F0                     l1523:	
  4838  00F0  3001               	movlw	1
  4839  00F1  02A0               	subwf	___awdiv@counter,f
  4840  00F2  1D03               	btfss	3,2
  4841  00F3  28F5               	goto	u891
  4842  00F4  28F6               	goto	u890
  4843  00F5                     u891:	
  4844  00F5  28D1               	goto	l1515
  4845  00F6                     u890:	
  4846  00F6                     l1525:	
  4847  00F6  0821               	movf	___awdiv@sign,w
  4848  00F7  1903               	btfsc	3,2
  4849  00F8  28FA               	goto	u901
  4850  00F9  28FB               	goto	u900
  4851  00FA                     u901:	
  4852  00FA  2900               	goto	l1529
  4853  00FB                     u900:	
  4854  00FB                     l1527:	
  4855  00FB  09A2               	comf	___awdiv@quotient,f
  4856  00FC  09A3               	comf	___awdiv@quotient+1,f
  4857  00FD  0AA2               	incf	___awdiv@quotient,f
  4858  00FE  1903               	skipnz
  4859  00FF  0AA3               	incf	___awdiv@quotient+1,f
  4860  0100                     l1529:	
  4861  0100  0823               	movf	___awdiv@quotient+1,w
  4862  0101  00F8               	movwf	?___awdiv+1
  4863  0102  0822               	movf	___awdiv@quotient,w
  4864  0103  00F7               	movwf	?___awdiv
  4865  0104                     l460:	
  4866  0104  0008               	return
  4867  0105                     __end_of___awdiv:	
  4868  007E                     btemp	set	126	;btemp
  4869  007E                     wtemp0	set	126


Data Sizes:
    Strings     129
    Constant    0
    Data        0
    BSS         22
    Persistent  0
    Stack       0

Auto Spaces:
    Space          Size  Autos    Used
    COMMON           14     14      14
    BANK0            80     26      48
    BANK1            80      0       0
    BANK3            96      0       0
    BANK2            96      0       0

Pointer List with Targets:

    lcddirection@valor	PTR unsigned char  size(1) Largest target is 17
		 -> STR_43(CODE[2]), STR_42(CODE[2]), STR_41(CODE[2]), STR_40(CODE[2]), 
		 -> STR_39(CODE[2]), STR_38(CODE[2]), STR_37(CODE[2]), STR_36(CODE[2]), 
		 -> STR_35(CODE[2]), STR_34(CODE[2]), STR_33(CODE[2]), STR_32(CODE[2]), 
		 -> STR_31(CODE[2]), STR_30(CODE[2]), STR_29(CODE[2]), STR_28(CODE[2]), 
		 -> STR_27(CODE[2]), STR_26(CODE[2]), STR_25(CODE[2]), STR_24(CODE[2]), 
		 -> STR_23(CODE[3]), STR_22(CODE[3]), STR_21(CODE[3]), STR_20(CODE[3]), 
		 -> STR_19(CODE[3]), STR_18(CODE[3]), STR_17(CODE[3]), STR_16(CODE[3]), 
		 -> STR_15(CODE[3]), STR_14(CODE[3]), STR_13(CODE[3]), STR_12(CODE[3]), 
		 -> STR_11(CODE[3]), STR_10(CODE[3]), STR_9(CODE[3]), STR_8(CODE[3]), 
		 -> STR_7(CODE[3]), STR_6(CODE[17]), STR_5(CODE[17]), STR_4(CODE[6]), 
		 -> STR_3(CODE[16]), STR_2(CODE[6]), STR_1(CODE[16]), 

    impresion@valor	PTR unsigned char  size(1) Largest target is 17
		 -> STR_43(CODE[2]), STR_42(CODE[2]), STR_41(CODE[2]), STR_40(CODE[2]), 
		 -> STR_39(CODE[2]), STR_38(CODE[2]), STR_37(CODE[2]), STR_36(CODE[2]), 
		 -> STR_35(CODE[2]), STR_34(CODE[2]), STR_33(CODE[2]), STR_32(CODE[2]), 
		 -> STR_31(CODE[2]), STR_30(CODE[2]), STR_29(CODE[2]), STR_28(CODE[2]), 
		 -> STR_27(CODE[2]), STR_26(CODE[2]), STR_25(CODE[2]), STR_24(CODE[2]), 
		 -> STR_23(CODE[3]), STR_22(CODE[3]), STR_21(CODE[3]), STR_20(CODE[3]), 
		 -> STR_19(CODE[3]), STR_18(CODE[3]), STR_17(CODE[3]), STR_16(CODE[3]), 
		 -> STR_15(CODE[3]), STR_14(CODE[3]), STR_13(CODE[3]), STR_12(CODE[3]), 
		 -> STR_11(CODE[3]), STR_10(CODE[3]), STR_9(CODE[3]), STR_8(CODE[3]), 
		 -> STR_7(CODE[3]), STR_6(CODE[17]), STR_5(CODE[17]), STR_4(CODE[6]), 
		 -> STR_3(CODE[16]), STR_2(CODE[6]), STR_1(CODE[16]), 


Critical Paths under _main in COMMON

    _main->_lcddirection
    _clean->_Control
    _I2C_Master_Init->___lldiv
    _POTENCIOMETRO->_lcddirection
    _LCDvalue->_Control
    _LCDCONT->_lcddirection
    _FOTORESIS->_lcddirection
    _lcddirection->_Control
    _lcddirection->_impresion
    _impresion->_ON
    _ON->_delay_us
    _Control->_delay_ms
    _Tiempocontrol->_delay_us
    ___awdiv->___awmod

Critical Paths under _main in BANK0

    _main->_FOTORESIS
    _main->_POTENCIOMETRO
    _Properties->_I2C_Master_Init
    _POTENCIOMETRO->___awdiv
    _LCDCONT->_lcddirection
    _FOTORESIS->___awdiv

Critical Paths under _main in BANK1

    None.

Critical Paths under _main in BANK3

    None.

Critical Paths under _main in BANK2

    None.

Call Graph Tables:

 ---------------------------------------------------------------------------------
 (Depth) Function   	        Calls       Base Space   Used Autos Params    Refs
 ---------------------------------------------------------------------------------
 (0) _main                                                 1     1      0   58457
                                             25 BANK0      1     1      0
                          _FOTORESIS
                    _I2C_Master_Read
                   _I2C_Master_Start
                    _I2C_Master_Stop
                   _I2C_Master_Write
                            _LCDCONT
                           _LCDvalue
                      _POTENCIOMETRO
                         _Properties
                              _clean
                           _delay_ms
                       _lcddirection
 ---------------------------------------------------------------------------------
 (1) _clean                                                0     0      0     920
                            _Control
 ---------------------------------------------------------------------------------
 (1) _Properties                                           0     0      0     412
                    _I2C_Master_Init
 ---------------------------------------------------------------------------------
 (2) _I2C_Master_Init                                      8     4      4     412
                                              0 BANK0      8     4      4
                            ___lldiv
 ---------------------------------------------------------------------------------
 (3) ___lldiv                                             14     6      8     314
                                              0 COMMON    14     6      8
 ---------------------------------------------------------------------------------
 (1) _POTENCIOMETRO                                       21    21      0   15436
                                              4 BANK0     21    21      0
                            ___awdiv
                            ___awmod
                       _lcddirection
 ---------------------------------------------------------------------------------
 (1) _LCDvalue                                             0     0      0    1544
                            _Control
                           _delay_ms
 ---------------------------------------------------------------------------------
 (1) _LCDCONT                                              5     1      4   12055
                                              1 BANK0      5     1      4
                       _lcddirection
 ---------------------------------------------------------------------------------
 (1) _I2C_Master_Write                                     2     0      2     250
                                              0 COMMON     2     0      2
                    _I2C_Master_Wait
 ---------------------------------------------------------------------------------
 (1) _I2C_Master_Stop                                      0     0      0       0
                    _I2C_Master_Wait
 ---------------------------------------------------------------------------------
 (1) _I2C_Master_Start                                     0     0      0       0
                    _I2C_Master_Wait
 ---------------------------------------------------------------------------------
 (1) _I2C_Master_Read                                      6     4      2     273
                                              0 COMMON     6     4      2
                    _I2C_Master_Wait
 ---------------------------------------------------------------------------------
 (2) _I2C_Master_Wait                                      0     0      0       0
 ---------------------------------------------------------------------------------
 (1) _FOTORESIS                                           21    21      0   15436
                                              4 BANK0     21    21      0
                            ___awdiv
                            ___awmod
                       _lcddirection
 ---------------------------------------------------------------------------------
 (1) _lcddirection                                         7     2      5   11507
                                              8 COMMON     6     1      5
                                              0 BANK0      1     1      0
                            _Control
                          _impresion
 ---------------------------------------------------------------------------------
 (2) _impresion                                            2     2      0     648
                                              6 COMMON     2     2      0
                                 _ON
 ---------------------------------------------------------------------------------
 (3) _ON                                                   1     1      0     570
                                              5 COMMON     1     1      0
                      _Tiempocontrol
                           _delay_us
 ---------------------------------------------------------------------------------
 (2) _Control                                              1     1      0     920
                                              7 COMMON     1     1      0
                      _Tiempocontrol
                           _delay_ms
 ---------------------------------------------------------------------------------
 (3) _delay_ms                                             7     5      2     624
                                              0 COMMON     7     5      2
 ---------------------------------------------------------------------------------
 (4) _Tiempocontrol                                        0     0      0     274
                           _delay_us
 ---------------------------------------------------------------------------------
 (4) _delay_us                                             5     3      2     274
                                              0 COMMON     5     3      2
 ---------------------------------------------------------------------------------
 (2) ___awmod                                              7     3      4    2120
                                              0 COMMON     7     3      4
 ---------------------------------------------------------------------------------
 (2) ___awdiv                                              9     5      4     908
                                              7 COMMON     5     1      4
                                              0 BANK0      4     4      0
                            ___awmod (ARG)
 ---------------------------------------------------------------------------------
 Estimated maximum stack depth 4
 ---------------------------------------------------------------------------------

 Call Graph Graphs:

 _main (ROOT)
   _FOTORESIS
     ___awdiv
       ___awmod (ARG)
     ___awmod
     _lcddirection
       _Control
         _Tiempocontrol
           _delay_us
         _delay_ms
       _impresion
         _ON
           _Tiempocontrol
             _delay_us
           _delay_us
   _I2C_Master_Read
     _I2C_Master_Wait
   _I2C_Master_Start
     _I2C_Master_Wait
   _I2C_Master_Stop
     _I2C_Master_Wait
   _I2C_Master_Write
     _I2C_Master_Wait
   _LCDCONT
     _lcddirection
       _Control
         _Tiempocontrol
           _delay_us
         _delay_ms
       _impresion
         _ON
           _Tiempocontrol
             _delay_us
           _delay_us
   _LCDvalue
     _Control
       _Tiempocontrol
         _delay_us
       _delay_ms
     _delay_ms
   _POTENCIOMETRO
     ___awdiv
       ___awmod (ARG)
     ___awmod
     _lcddirection
       _Control
         _Tiempocontrol
           _delay_us
         _delay_ms
       _impresion
         _ON
           _Tiempocontrol
             _delay_us
           _delay_us
   _Properties
     _I2C_Master_Init
       ___lldiv
   _clean
     _Control
       _Tiempocontrol
         _delay_us
       _delay_ms
   _delay_ms
   _lcddirection
     _Control
       _Tiempocontrol
         _delay_us
       _delay_ms
     _impresion
       _ON
         _Tiempocontrol
           _delay_us
         _delay_us

 Address spaces:
Name               Size   Autos  Total    Cost      Usage
BITCOMMON            E      0       0       0        0.0%
EEDATA             100      0       0       0        0.0%
NULL                 0      0       0       0        0.0%
CODE                 0      0       0       0        0.0%
COMMON               E      E       E       1      100.0%
BITSFR0              0      0       0       1        0.0%
SFR0                 0      0       0       1        0.0%
BITSFR1              0      0       0       2        0.0%
SFR1                 0      0       0       2        0.0%
STACK                0      0       0       2        0.0%
ABS                  0      0      3E       3        0.0%
BITBANK0            50      0       0       4        0.0%
BITSFR3              0      0       0       4        0.0%
SFR3                 0      0       0       4        0.0%
BANK0               50     1A      30       5       60.0%
BITSFR2              0      0       0       5        0.0%
SFR2                 0      0       0       5        0.0%
BITBANK1            50      0       0       6        0.0%
BANK1               50      0       0       7        0.0%
BITBANK3            60      0       0       8        0.0%
BANK3               60      0       0       9        0.0%
BITBANK2            60      0       0      10        0.0%
BANK2               60      0       0      11        0.0%
DATA                 0      0      3E      12        0.0%


Microchip Technology PIC Macro Assembler V2.10 build 88905656 
Symbol Table                                                                                   Thu Feb 27 11:29:28 2020

                        pc 0002                __CFG_CP$OFF 0000                         l70 0E10  
                       l62 0ECC                         l39 0E06                         l73 0E1E  
                       l82 0DEF                         l67 0EDA                         l91 0E56  
                       l76 0E37                         l85 0EAD                         l79 0DDA  
                       l99 0E81                         _ON 0DDB               ___awdiv@sign 0021  
                       fsr 0004              ?_lcddirection 0078                        ?_ON 0070  
                      l201 009B                        l121 03A1                        l210 0DBB  
                      l204 0DB2                        l213 0DC5                        l142 05C8  
                      l216 0F00                        l217 0F03                        l218 0F08  
                      l163 07F2                        l166 0DA1                        l343 0FFF  
                      l195 0F40                        l460 0104                        l198 008F  
                      l473 0F99                        _GIE 005F               __CFG_CPD$OFF 0000  
                      u700 0E56                        u701 0E55                        u710 0FAA  
                      u711 0FA9                        u800 009B                        u801 009A  
                      u810 00A3                        u730 0FBE                        u811 00A2  
                      u731 0FBD                        u900 00FB                        u820 00AE  
                      u901 00FA                        u821 00AD                        u725 0FAF  
                      u830 00BF                        u910 0F46                        u670 0E1E  
                      u750 0FD9                        u831 00BE                        u911 0F45  
                      u671 0E1D                        u751 0FD8                        u920 0F51  
                      u680 0EC6                        u921 0F50                        u681 0EC5  
                      u745 0FC0                        u850 00D1                        u930 0F5C  
                      u690 0EDA                        u770 0FF7                        u851 00D0  
                      u931 0F5B                        u675 0E1A                        u691 0ED9  
                      u771 0FF6                        u755 0FD5                        u780 0F20  
                      u845 00C3                        u685 0EC2                        u765 0FE9  
                      u870 00E2                        u950 0F6E                        u790 0095  
                      u871 00E1                        u951 0F6D                        u695 0ED6  
                      u791 0094                        u960 0F78                        u865 00D2  
                      u961 0F77                        u945 0F60                        u785 0F1B  
                      u890 00F6                        _POT 004E                        u891 00F5  
                      u875 00DE                        u980 0F8B                        u885 00EA  
                      u981 0F8A                        u965 0F74                        u990 0F90  
                      u991 0F8F                        u975 0F7F              _FOTORESIS$952 0032  
                      _dms 0048                        _dus 0046                        fsr0 0004  
                      indf 0000               ___awmod@sign 0076            __end_of_LCDCONT 03A2  
                     ??_ON 0075               __CFG_LVP$OFF 0000                       l1401 0EB9  
                     l1403 0EC6                       l1411 0DE6                       l1501 00B3  
                     l1413 0DC7                       l1405 0DDC                       l1421 0E39  
                     l1511 00C9                       l1503 00B7                       l1415 0DCA  
                     l1407 0DDF                       l1423 0E3A                       l1431 0FAA  
                     l1521 00E9                       l1513 00CD                       l1505 00B9  
                     l1417 0DCC                       l1409 0DE1                       l1425 0E46  
                     l1601 0DC1                       l1441 0FD9                       l1433 0FAD  
                     l1523 00F0                       l1515 00D1                       l1507 00BF  
                     l1419 0DD1                       l1427 0E4A                       l1611 0EF6  
                     l1603 0EDB                       l1443 0FE7                       l1435 0FBA  
                     l1517 00E2                       l1509 00C2                       l1525 00F6  
                     l1541 0F4D                       l1533 0F41                       l1381 0E07  
                     l1613 0EFC                       l1605 0EE0                       l1621 0DB8  
                     l1701 0483                       l1445 0FE8                       l1437 0FBE  
                     l1429 0F9A                       l1461 0F3E                       l1453 0F09  
                     l1527 00FB                       l1519 00E8                       l1551 0F66  
                     l1543 0F51                       l1535 0F42                       l1383 0E0A  
                     l1391 0EAE                       l1615 0F04                       l1607 0EE8  
                     l1631 026C                       l1623 0235                       l1711 049B  
                     l1703 0489                       l1447 0FF1                       l1439 0FC7  
                     l1463 0F3F                       l1455 0F0D                       l1529 0100  
                     l1561 0F85                       l1553 0F6A                       l1545 0F56  
                     l1537 0F46                       l1385 0E1F                       l1393 0EB1  
                     l1465 0E57                       l1801 06C5                       l1609 0EF1  
                     l1641 02C6                       l1633 027E                       l1625 0236  
                     l1721 04D3                       l1713 049F                       l1705 048A  
                     l1449 0FF7                       l1457 0F10                       l1491 009F  
                     l1555 0F6E                       l1547 0F5C                       l1563 0F8B  
                     l1539 0F4B                       l1387 0E22                       l1467 0E58  
                     l1475 0E68                       l1811 06FD                       l1803 06C9  
                     l1619 0DB3                       l1651 0320                       l1643 02D8  
                     l1635 0290                       l1627 0248                       l1731 0513  
                     l1723 04DB                       l1715 04A4                       l1707 0490  
                     l1459 0F3D                       l1571 0DF0                       l1493 00A3  
                     l1565 0F90                       l1557 0F78                       l1549 0F5F  
                     l1389 0E2B                       l1469 0E60                       l1477 0E75  
                     l1821 073D                       l1813 0705                       l1805 06CE  
                     l1485 008F                       l1653 0332                       l1645 02EA  
                     l1637 02A2                       l1629 025A                       l1661 0368  
                     l1581 0E8A                       l1741 055F                       l1733 0527  
                     l1725 04EF                       l1717 04B8                       l1709 0494  
                     l1573 0DF7                       l1495 00A8                       l1567 0F95  
                     l1559 0F7E                       l1399 0EB3                       l1479 0E7B  
                     l1831 0789                       l1823 0751                       l1815 0719  
                     l1807 06E2                       l1487 0095                       l1655 0344  
                     l1647 02FC                       l1639 02B4                       l1591 0EA7  
                     l1583 0E8C                       l1575 0E82                       l1751 059F  
                     l1743 0567                       l1735 052F                       l1727 04F7  
                     l1719 04BF                       l1671 03AF                       l1497 00AA  
                     l1489 009C                       l1841 07C9                       l1833 0791  
                     l1825 0759                       l1817 0721                       l1809 06E9  
                     l1761 05D6                       l1657 0356                       l1649 030E  
                     l1585 0E95                       l1577 0E86                       l1753 05B3  
                     l1745 057B                       l1737 0543                       l1729 050B  
                     l1681 042C                       l1673 03AF                       l1593 0D9B  
                     l1499 00AE                       l1843 07DD                       l1835 07A5  
                     l1827 076D                       l1819 0735                       l1771 0653  
                     l1763 05D6                       l1595 0DAA                       l1587 0E9B  
                     l1579 0E87                       l1755 05BB                       l1747 0583  
                     l1739 054B                       l1691 046E                       l1683 0442  
                     l1675 03B0                       l1667 03A5                       l1851 0121  
                     l1845 07E5                       l1837 07AD                       l1829 0775  
                     l1781 0695                       l1773 0669                       l1765 05D7  
                     l1757 05CC                       l1597 0DAF                       l1589 0EA1  
                     l1749 0597                       l1693 0475                       l1685 0457  
                     l1677 03DA                       l1669 03AB                       l1861 018F  
                     l1853 013D                       l1839 07C1                       l1791 06AA  
                     l1783 069C                       l1775 067E                       l1767 0601  
                     l1759 05D2                       l1599 0DBC                       l1935 036F  
                     l1687 0460                       l1679 03F0                       l1871 01B5  
                     l1863 0194                       l1855 014F                       l1847 0105  
                     l1937 0E6D                       l1793 06B0                       l1777 0687  
                     l1769 0617                       l1689 0467                       l1881 0204  
                     l1873 01DF                       l1865 0199                       l1857 016B  
                     l1849 010F                       l1795 06B4                       l1779 068E  
                     l1699 0477                       l1883 0209                       l1875 01E8  
                     l1867 01A2                       l1859 017D                       l1797 06BA  
                     l1789 069E                       l1885 0212                       l1877 01ED  
                     l1869 01B0                       l1799 06BE                       l1887 0221  
                     l1879 01F6                       l1889 0229                       STR_1 003B  
                     STR_2 0051                       STR_3 002B                       STR_4 004B  
                     STR_5 0009                       STR_6 001A                       STR_7 0057  
                     STR_8 005D                       STR_9 0063                       u1000 0EFC  
                     u1001 0EFB                       u1010 03AB                       u1011 03AA  
                     u1100 0513                       u1020 045B                       u1101 0512  
                     u1110 052F                       u1030 0489                       u1111 052E  
                     u1031 0488                       u1200 06BA                       u1120 054B  
                     u1040 0490                       u1201 06B9                       u1121 054A  
                     u1041 048F                       u1210 06C5                       u1130 0567  
                     u1050 049B                       u1211 06C4                       u1131 0566  
                     u1051 049A                       u1300 07AD                       u1220 06CE  
                     u1140 0583                       u1060 04A4                       _CONT 004C  
                     u1301 07AC                       u1221 06CD                       u1141 0582  
                     u1061 04A3                       u1310 07C9                       u1230 06E9  
                     u1150 059F                       u1070 04BF                       u1311 07C8  
                     u1231 06E8                       u1151 059E                       u1071 04BE  
                     u1320 07F2                       u1240 0705                       u1160 05C8  
                     u1080 04DB                       u1321 07F1                       u1241 0704  
                     u1161 05C7                       u1081 04DA                       u1250 0721  
                     u1170 05D2                       u1090 04F7                       u1251 0720  
                     u1171 05D1                       u1091 04F6                       u1260 073D  
                     u1180 0682                       u1325 07EE                       u1261 073C  
                     u1165 05C4                       u1270 0759                       u1190 06B0  
                     u1271 0758                       u1191 06AF                       u1280 0775  
                     u1281 0774                       u1290 0791                       u1291 0790  
                     _FOTO 004A                       _PEIE 005E               __CFG_WRT$OFF 0000  
                     _main 0105                       btemp 007E              __CFG_BOREN$ON 0000  
       __size_of_FOTORESIS 022A                       start 0000              __CFG_IESO$OFF 0000  
             Control@valor 0077              __CFG_MCLRE$ON 0000            __end_of_Control 0DDB  
         ?_I2C_Master_Init 0020           ?_I2C_Master_Read 0070             ??_lcddirection 007D  
         ?_I2C_Master_Wait 0070           ?_I2C_Master_Stop 0070                      ?_main 0070  
          __end_of___awdiv 0105                      STR_10 0069                      STR_11 006F  
                    STR_12 0075                      STR_20 006C                      STR_13 007B  
                    STR_21 0072                      STR_30 007C                      STR_14 0081  
                    STR_22 0078                      STR_31 0082                      STR_15 0084  
                    STR_23 007E                      STR_24 0058                      STR_40 007C  
                    STR_32 0085                      STR_16 0087                      STR_25 005E  
                    STR_41 0082                      STR_33 0088                      STR_17 005A  
            __CFG_WDTE$OFF 0000                      STR_34 0058                      STR_26 0064  
                    STR_42 0085                      STR_18 0060                      STR_35 005E  
                    STR_27 006A                      STR_43 0088                      STR_19 0066  
                    STR_36 0064                      STR_28 0070            __end_of___awmod 0F9A  
                    STR_37 006A                      STR_29 0076                      STR_38 0070  
                    STR_39 0076           __end_of_LCDvalue 0EAE                      _ANSEL 0188  
          __end_of___lldiv 1000            ___awdiv@divisor 0077      POTENCIOMETRO@unidades 002F  
          ___awdiv@counter 0020                      _PORTB 0006                      _TRISA 0085  
                    _TRISB 0086                      _SSPIE 0463                      _SSPIF 0063  
           __CFG_FCMEN$OFF 0000                      _clean 0D9B                      pclath 000A  
                    status 0003                      wtemp0 007E      __end_of_POTENCIOMETRO 05C9  
          __initialization 07F3               __end_of_main 0235                     ??_main 0039  
                ??_LCDCONT 0025          __end_of_FOTORESIS 07F3          ?_I2C_Master_Start 0070  
        ?_I2C_Master_Write 0070                     ?_clean 0070         ??_I2C_Master_Start 0070  
       ??_I2C_Master_Write 0072           ___awdiv@dividend 0079                     _ANSELH 0189  
                   _SSPADD 0093                     _TRISC3 043B                     _TRISC4 043C  
                   _SSPCON 0014                     _SSPBUF 0013                  ??_Control 0077  
         __end_of_delay_ms 0EDB           __end_of_delay_us 0E1F             __CFG_PWRTE$OFF 0000  
    __end_of_Tiempocontrol 0E38    POTENCIOMETRO@centesimas 0031                  ??___awdiv 007B  
                ??___awmod 0074                  ??___lldiv 0078             impresion@valor 0077  
            lcddirection@x 0078              lcddirection@y 007A           ___awdiv@quotient 0022  
          ___awmod@divisor 0070            ___awmod@counter 0075                 _Properties 0DF0  
  POTENCIOMETRO@coordenada 0038       __end_of_lcddirection 0E82    __end_of__initialization 07FC  
                ?_LCDvalue 0070             __pcstackCOMMON 0070        POTENCIOMETRO@result 0036  
      POTENCIOMETRO@numero 0029              __end_of_clean 0DA2                 __end_of_ON 0DF0  
                  ??_clean 0078                 __pbssBANK0 003A       lcddirection@posicion 0020  
               ??_LCDvalue 0078         __size_of_impresion 001F                 __pmaintext 0105  
                  _LCDCONT 0235            FOTORESIS@result 0036            FOTORESIS@numero 0029  
                ?_delay_ms 0070                  ?_delay_us 0070                ?_Properties 0070  
                  _SSPCON2 0091                    _SSPSTAT 0094                 __stringtab 0003  
                  _Control 0DC6                    ___awdiv 009C                    ___awmod 0F41  
                  ___lldiv 0F9A          lcddirection@valor 007C                    __ptext1 0D9B  
                  __ptext2 0DF0                    __ptext3 0F09                    __ptext4 0F9A  
                  __ptext5 03A2                    __ptext6 0E82                    __ptext7 0235  
                  __ptext8 0DBC                    __ptext9 0DB3          FOTORESIS@unidades 002F  
         ___awmod@dividend 0072                 ??_delay_ms 0072                 ??_delay_us 0072  
 __size_of_I2C_Master_Init 0038   __size_of_I2C_Master_Read 002E   __size_of_I2C_Master_Wait 000D  
        __end_of_impresion 0E57   __size_of_I2C_Master_Stop 0009      __size_of_lcddirection 002B  
                _FOTORESIS 05C9                    clrloop0 0DA3       end_of_initialization 07FC  
__size_of_I2C_Master_Start 0009  __size_of_I2C_Master_Write 000A            ___lldiv@divisor 0070  
          ___lldiv@counter 007D           I2C_Master_Init@c 0020           I2C_Master_Read@a 0070  
      __size_of_Properties 0017               _lcddirection 0E57                  _PORTDbits 0008  
        _POTENCIOMETRO$951 0032     __size_of_POTENCIOMETRO 0227                  _TRISCbits 0087  
                _TRISDbits 0088                 ?_FOTORESIS 0070       POTENCIOMETRO@decimas 0030  
      FOTORESIS@centesimas 0031          __size_of_LCDvalue 002C                 FOTORESIS@i 0034  
      start_initialization 07F3        FOTORESIS@coordenada 0038     __size_of_Tiempocontrol 0019  
        ??_I2C_Master_Init 0024          ??_I2C_Master_Read 0072          ??_I2C_Master_Wait 0070  
        ??_I2C_Master_Stop 0070              _POTENCIOMETRO 03A2         POTENCIOMETRO@F1348 0040  
                 LCDCONT@x 0021                   LCDCONT@z 0023                   ?_LCDCONT 0021  
                ___latbits 0002              __pcstackBANK0 0020               ??_Properties 007E  
       POTENCIOMETRO@valor 0037                ??_FOTORESIS 0024          __size_of_delay_ms 002D  
        __size_of_delay_us 0018     __CFG_FOSC$INTRC_CLKOUT 0000             FOTORESIS@F1358 003A  
                 ?_Control 0070             ?_POTENCIOMETRO 0070           _I2C_Master_Start 0DAA  
         _I2C_Master_Write 0DBC              _Tiempocontrol 0E1F                   ?___awdiv 0077  
                 ?___awmod 0070                   ?___lldiv 0070         __end_of_Properties 0E07  
           FOTORESIS@valor 0037                   ON@valor1 0075                  __pstrings 0003  
         FOTORESIS@decimas 0030             __size_of_clean 0007                __size_of_ON 0015  
                _impresion 0E38                  delay_ms@i 0073                  delay_ms@j 0075  
                delay_us@i 0073                  clear_ram0 0DA2                   _LCDvalue 0E82  
           ?_Tiempocontrol 0070                __stringbase 0008           __size_of_LCDCONT 016D  
      I2C_Master_Read@temp 0074                 ?_impresion 0070            ??_POTENCIOMETRO 0024  
         __size_of_Control 0015           __size_of___awdiv 0069           __size_of___awmod 0059  
         __size_of___lldiv 0066         __end_of__stringtab 0009            _I2C_Master_Init 0F09  
          _I2C_Master_Read 0EDB            _I2C_Master_Wait 008F            _I2C_Master_Stop 0DB3  
                 _delay_ms 0EAE                   _delay_us 0E07                   __ptext10 0DAA  
                 __ptext11 0EDB                   __ptext20 0E07                   __ptext12 008F  
                 __ptext21 0F41                   __ptext13 05C9                   __ptext22 009C  
                 __ptext14 0E57                   __ptext15 0E38                   __ptext16 0DDB  
                 __ptext17 0DC6                   __ptext18 0EAE                   __ptext19 0E1F  
        __CFG_BOR4V$BOR40V 0000              __size_of_main 0130            ??_Tiempocontrol 0075  
              delay_ms@dms 0070                delay_us@dus 0070   __end_of_I2C_Master_Start 0DB3  
 __end_of_I2C_Master_Write 0DC6                ??_impresion 0076             POTENCIOMETRO@i 0034  
         ___lldiv@dividend 0074                  stringcode 0003    __end_of_I2C_Master_Init 0F41  
  __end_of_I2C_Master_Read 0F09    __end_of_I2C_Master_Wait 009C    __end_of_I2C_Master_Stop 0DBC  
         ___lldiv@quotient 0079          I2C_Master_Write@d 0070                   stringdir 0003  
                 stringtab 0003                _SSPCON2bits 0091  
